Archive member included to satisfy reference by file (symbol)

c:/users/erth0001/user/gnuarmeclipse_photon/eclipse/gnu mcu eclipse/arm embedded gcc/bin/../lib/gcc/arm-none-eabi/7.3.1/thumb/v7e-m/fpv4-sp/hard\libgcc.a(_arm_truncdfsf2.o)
                              ./system/include/platform/FM4_slider_interface.o (__aeabi_d2f)
c:/users/erth0001/user/gnuarmeclipse_photon/eclipse/gnu mcu eclipse/arm embedded gcc/bin/../lib/gcc/arm-none-eabi/7.3.1/../../../../arm-none-eabi/lib/thumb/v7e-m/fpv4-sp/hard\libg_nano.a(lib_a-atof.o)
                              ./system/include/platform/FM4_slider_interface.o (atof)
c:/users/erth0001/user/gnuarmeclipse_photon/eclipse/gnu mcu eclipse/arm embedded gcc/bin/../lib/gcc/arm-none-eabi/7.3.1/../../../../arm-none-eabi/lib/thumb/v7e-m/fpv4-sp/hard\libg_nano.a(lib_a-atoi.o)
                              ./system/include/platform/FM4_slider_interface.o (atoi)
c:/users/erth0001/user/gnuarmeclipse_photon/eclipse/gnu mcu eclipse/arm embedded gcc/bin/../lib/gcc/arm-none-eabi/7.3.1/../../../../arm-none-eabi/lib/thumb/v7e-m/fpv4-sp/hard\libg_nano.a(lib_a-memset.o)
                              ./system/include/platform/FM4_slider_interface.o (memset)
c:/users/erth0001/user/gnuarmeclipse_photon/eclipse/gnu mcu eclipse/arm embedded gcc/bin/../lib/gcc/arm-none-eabi/7.3.1/../../../../arm-none-eabi/lib/thumb/v7e-m/fpv4-sp/hard\libg_nano.a(lib_a-nano-vfprintf_float.o)
                              (_printf_float)
c:/users/erth0001/user/gnuarmeclipse_photon/eclipse/gnu mcu eclipse/arm embedded gcc/bin/../lib/gcc/arm-none-eabi/7.3.1/../../../../arm-none-eabi/lib/thumb/v7e-m/fpv4-sp/hard\libg_nano.a(lib_a-nano-vfprintf_i.o)
                              c:/users/erth0001/user/gnuarmeclipse_photon/eclipse/gnu mcu eclipse/arm embedded gcc/bin/../lib/gcc/arm-none-eabi/7.3.1/../../../../arm-none-eabi/lib/thumb/v7e-m/fpv4-sp/hard\libg_nano.a(lib_a-nano-vfprintf_float.o) (_printf_common)
c:/users/erth0001/user/gnuarmeclipse_photon/eclipse/gnu mcu eclipse/arm embedded gcc/bin/../lib/gcc/arm-none-eabi/7.3.1/../../../../arm-none-eabi/lib/thumb/v7e-m/fpv4-sp/hard\libg_nano.a(lib_a-nano-vfscanf_float.o)
                              (_scanf_float)
c:/users/erth0001/user/gnuarmeclipse_photon/eclipse/gnu mcu eclipse/arm embedded gcc/bin/../lib/gcc/arm-none-eabi/7.3.1/../../../../arm-none-eabi/lib/thumb/v7e-m/fpv4-sp/hard\libg_nano.a(lib_a-printf.o)
                              ./src/Examples/Semihosting.o (printf)
c:/users/erth0001/user/gnuarmeclipse_photon/eclipse/gnu mcu eclipse/arm embedded gcc/bin/../lib/gcc/arm-none-eabi/7.3.1/../../../../arm-none-eabi/lib/thumb/v7e-m/fpv4-sp/hard\libg_nano.a(lib_a-sf_nan.o)
                              c:/users/erth0001/user/gnuarmeclipse_photon/eclipse/gnu mcu eclipse/arm embedded gcc/bin/../lib/gcc/arm-none-eabi/7.3.1/../../../../arm-none-eabi/lib/thumb/v7e-m/fpv4-sp/hard\libg_nano.a(lib_a-nano-vfscanf_float.o) (nanf)
c:/users/erth0001/user/gnuarmeclipse_photon/eclipse/gnu mcu eclipse/arm embedded gcc/bin/../lib/gcc/arm-none-eabi/7.3.1/../../../../arm-none-eabi/lib/thumb/v7e-m/fpv4-sp/hard\libg_nano.a(lib_a-sprintf.o)
                              c:/users/erth0001/user/gnuarmeclipse_photon/eclipse/gnu mcu eclipse/arm embedded gcc/bin/../lib/gcc/arm-none-eabi/7.3.1/../../../../arm-none-eabi/lib/thumb/v7e-m/fpv4-sp/hard\libg_nano.a(lib_a-nano-vfscanf_float.o) (sprintf)
c:/users/erth0001/user/gnuarmeclipse_photon/eclipse/gnu mcu eclipse/arm embedded gcc/bin/../lib/gcc/arm-none-eabi/7.3.1/../../../../arm-none-eabi/lib/thumb/v7e-m/fpv4-sp/hard\libg_nano.a(lib_a-strlen.o)
                              c:/users/erth0001/user/gnuarmeclipse_photon/eclipse/gnu mcu eclipse/arm embedded gcc/bin/../lib/gcc/arm-none-eabi/7.3.1/../../../../arm-none-eabi/lib/thumb/v7e-m/fpv4-sp/hard\libg_nano.a(lib_a-nano-vfprintf_float.o) (strlen)
c:/users/erth0001/user/gnuarmeclipse_photon/eclipse/gnu mcu eclipse/arm embedded gcc/bin/../lib/gcc/arm-none-eabi/7.3.1/../../../../arm-none-eabi/lib/thumb/v7e-m/fpv4-sp/hard\libg_nano.a(lib_a-strtod.o)
                              c:/users/erth0001/user/gnuarmeclipse_photon/eclipse/gnu mcu eclipse/arm embedded gcc/bin/../lib/gcc/arm-none-eabi/7.3.1/../../../../arm-none-eabi/lib/thumb/v7e-m/fpv4-sp/hard\libg_nano.a(lib_a-nano-vfscanf_float.o) (_strtod_r)
c:/users/erth0001/user/gnuarmeclipse_photon/eclipse/gnu mcu eclipse/arm embedded gcc/bin/../lib/gcc/arm-none-eabi/7.3.1/../../../../arm-none-eabi/lib/thumb/v7e-m/fpv4-sp/hard\libg_nano.a(lib_a-strtol.o)
                              c:/users/erth0001/user/gnuarmeclipse_photon/eclipse/gnu mcu eclipse/arm embedded gcc/bin/../lib/gcc/arm-none-eabi/7.3.1/../../../../arm-none-eabi/lib/thumb/v7e-m/fpv4-sp/hard\libg_nano.a(lib_a-atoi.o) (_strtol_r)
c:/users/erth0001/user/gnuarmeclipse_photon/eclipse/gnu mcu eclipse/arm embedded gcc/bin/../lib/gcc/arm-none-eabi/7.3.1/../../../../arm-none-eabi/lib/thumb/v7e-m/fpv4-sp/hard\libg_nano.a(lib_a-dtoa.o)
                              c:/users/erth0001/user/gnuarmeclipse_photon/eclipse/gnu mcu eclipse/arm embedded gcc/bin/../lib/gcc/arm-none-eabi/7.3.1/../../../../arm-none-eabi/lib/thumb/v7e-m/fpv4-sp/hard\libg_nano.a(lib_a-nano-vfprintf_float.o) (_dtoa_r)
c:/users/erth0001/user/gnuarmeclipse_photon/eclipse/gnu mcu eclipse/arm embedded gcc/bin/../lib/gcc/arm-none-eabi/7.3.1/../../../../arm-none-eabi/lib/thumb/v7e-m/fpv4-sp/hard\libg_nano.a(lib_a-findfp.o)
                              c:/users/erth0001/user/gnuarmeclipse_photon/eclipse/gnu mcu eclipse/arm embedded gcc/bin/../lib/gcc/arm-none-eabi/7.3.1/../../../../arm-none-eabi/lib/thumb/v7e-m/fpv4-sp/hard\libg_nano.a(lib_a-printf.o) (__sinit)
c:/users/erth0001/user/gnuarmeclipse_photon/eclipse/gnu mcu eclipse/arm embedded gcc/bin/../lib/gcc/arm-none-eabi/7.3.1/../../../../arm-none-eabi/lib/thumb/v7e-m/fpv4-sp/hard\libg_nano.a(lib_a-fwalk.o)
                              c:/users/erth0001/user/gnuarmeclipse_photon/eclipse/gnu mcu eclipse/arm embedded gcc/bin/../lib/gcc/arm-none-eabi/7.3.1/../../../../arm-none-eabi/lib/thumb/v7e-m/fpv4-sp/hard\libg_nano.a(lib_a-findfp.o) (_fwalk)
c:/users/erth0001/user/gnuarmeclipse_photon/eclipse/gnu mcu eclipse/arm embedded gcc/bin/../lib/gcc/arm-none-eabi/7.3.1/../../../../arm-none-eabi/lib/thumb/v7e-m/fpv4-sp/hard\libg_nano.a(lib_a-gdtoa-gethex.o)
                              c:/users/erth0001/user/gnuarmeclipse_photon/eclipse/gnu mcu eclipse/arm embedded gcc/bin/../lib/gcc/arm-none-eabi/7.3.1/../../../../arm-none-eabi/lib/thumb/v7e-m/fpv4-sp/hard\libg_nano.a(lib_a-strtod.o) (__gethex)
c:/users/erth0001/user/gnuarmeclipse_photon/eclipse/gnu mcu eclipse/arm embedded gcc/bin/../lib/gcc/arm-none-eabi/7.3.1/../../../../arm-none-eabi/lib/thumb/v7e-m/fpv4-sp/hard\libg_nano.a(lib_a-gdtoa-hexnan.o)
                              c:/users/erth0001/user/gnuarmeclipse_photon/eclipse/gnu mcu eclipse/arm embedded gcc/bin/../lib/gcc/arm-none-eabi/7.3.1/../../../../arm-none-eabi/lib/thumb/v7e-m/fpv4-sp/hard\libg_nano.a(lib_a-strtod.o) (__match)
c:/users/erth0001/user/gnuarmeclipse_photon/eclipse/gnu mcu eclipse/arm embedded gcc/bin/../lib/gcc/arm-none-eabi/7.3.1/../../../../arm-none-eabi/lib/thumb/v7e-m/fpv4-sp/hard\libg_nano.a(lib_a-impure.o)
                              c:/users/erth0001/user/gnuarmeclipse_photon/eclipse/gnu mcu eclipse/arm embedded gcc/bin/../lib/gcc/arm-none-eabi/7.3.1/../../../../arm-none-eabi/lib/thumb/v7e-m/fpv4-sp/hard\libg_nano.a(lib_a-findfp.o) (_global_impure_ptr)
c:/users/erth0001/user/gnuarmeclipse_photon/eclipse/gnu mcu eclipse/arm embedded gcc/bin/../lib/gcc/arm-none-eabi/7.3.1/../../../../arm-none-eabi/lib/thumb/v7e-m/fpv4-sp/hard\libg_nano.a(lib_a-locale.o)
                              c:/users/erth0001/user/gnuarmeclipse_photon/eclipse/gnu mcu eclipse/arm embedded gcc/bin/../lib/gcc/arm-none-eabi/7.3.1/../../../../arm-none-eabi/lib/thumb/v7e-m/fpv4-sp/hard\libg_nano.a(lib_a-strtol.o) (__locale_ctype_ptr_l)
c:/users/erth0001/user/gnuarmeclipse_photon/eclipse/gnu mcu eclipse/arm embedded gcc/bin/../lib/gcc/arm-none-eabi/7.3.1/../../../../arm-none-eabi/lib/thumb/v7e-m/fpv4-sp/hard\libg_nano.a(lib_a-localeconv.o)
                              c:/users/erth0001/user/gnuarmeclipse_photon/eclipse/gnu mcu eclipse/arm embedded gcc/bin/../lib/gcc/arm-none-eabi/7.3.1/../../../../arm-none-eabi/lib/thumb/v7e-m/fpv4-sp/hard\libg_nano.a(lib_a-strtod.o) (__localeconv_l)
c:/users/erth0001/user/gnuarmeclipse_photon/eclipse/gnu mcu eclipse/arm embedded gcc/bin/../lib/gcc/arm-none-eabi/7.3.1/../../../../arm-none-eabi/lib/thumb/v7e-m/fpv4-sp/hard\libg_nano.a(lib_a-malloc.o)
                              c:/users/erth0001/user/gnuarmeclipse_photon/eclipse/gnu mcu eclipse/arm embedded gcc/bin/../lib/gcc/arm-none-eabi/7.3.1/../../../../arm-none-eabi/lib/thumb/v7e-m/fpv4-sp/hard\libg_nano.a(lib_a-dtoa.o) (malloc)
c:/users/erth0001/user/gnuarmeclipse_photon/eclipse/gnu mcu eclipse/arm embedded gcc/bin/../lib/gcc/arm-none-eabi/7.3.1/../../../../arm-none-eabi/lib/thumb/v7e-m/fpv4-sp/hard\libg_nano.a(lib_a-mbtowc_r.o)
                              c:/users/erth0001/user/gnuarmeclipse_photon/eclipse/gnu mcu eclipse/arm embedded gcc/bin/../lib/gcc/arm-none-eabi/7.3.1/../../../../arm-none-eabi/lib/thumb/v7e-m/fpv4-sp/hard\libg_nano.a(lib_a-locale.o) (__ascii_mbtowc)
c:/users/erth0001/user/gnuarmeclipse_photon/eclipse/gnu mcu eclipse/arm embedded gcc/bin/../lib/gcc/arm-none-eabi/7.3.1/../../../../arm-none-eabi/lib/thumb/v7e-m/fpv4-sp/hard\libg_nano.a(lib_a-memchr.o)
                              c:/users/erth0001/user/gnuarmeclipse_photon/eclipse/gnu mcu eclipse/arm embedded gcc/bin/../lib/gcc/arm-none-eabi/7.3.1/../../../../arm-none-eabi/lib/thumb/v7e-m/fpv4-sp/hard\libg_nano.a(lib_a-nano-vfprintf_i.o) (memchr)
c:/users/erth0001/user/gnuarmeclipse_photon/eclipse/gnu mcu eclipse/arm embedded gcc/bin/../lib/gcc/arm-none-eabi/7.3.1/../../../../arm-none-eabi/lib/thumb/v7e-m/fpv4-sp/hard\libg_nano.a(lib_a-memcpy-stub.o)
                              c:/users/erth0001/user/gnuarmeclipse_photon/eclipse/gnu mcu eclipse/arm embedded gcc/bin/../lib/gcc/arm-none-eabi/7.3.1/../../../../arm-none-eabi/lib/thumb/v7e-m/fpv4-sp/hard\libg_nano.a(lib_a-strtod.o) (memcpy)
c:/users/erth0001/user/gnuarmeclipse_photon/eclipse/gnu mcu eclipse/arm embedded gcc/bin/../lib/gcc/arm-none-eabi/7.3.1/../../../../arm-none-eabi/lib/thumb/v7e-m/fpv4-sp/hard\libg_nano.a(lib_a-mprec.o)
                              c:/users/erth0001/user/gnuarmeclipse_photon/eclipse/gnu mcu eclipse/arm embedded gcc/bin/../lib/gcc/arm-none-eabi/7.3.1/../../../../arm-none-eabi/lib/thumb/v7e-m/fpv4-sp/hard\libg_nano.a(lib_a-strtod.o) (_Balloc)
c:/users/erth0001/user/gnuarmeclipse_photon/eclipse/gnu mcu eclipse/arm embedded gcc/bin/../lib/gcc/arm-none-eabi/7.3.1/../../../../arm-none-eabi/lib/thumb/v7e-m/fpv4-sp/hard\libg_nano.a(lib_a-nano-callocr.o)
                              c:/users/erth0001/user/gnuarmeclipse_photon/eclipse/gnu mcu eclipse/arm embedded gcc/bin/../lib/gcc/arm-none-eabi/7.3.1/../../../../arm-none-eabi/lib/thumb/v7e-m/fpv4-sp/hard\libg_nano.a(lib_a-mprec.o) (_calloc_r)
c:/users/erth0001/user/gnuarmeclipse_photon/eclipse/gnu mcu eclipse/arm embedded gcc/bin/../lib/gcc/arm-none-eabi/7.3.1/../../../../arm-none-eabi/lib/thumb/v7e-m/fpv4-sp/hard\libg_nano.a(lib_a-nano-freer.o)
                              c:/users/erth0001/user/gnuarmeclipse_photon/eclipse/gnu mcu eclipse/arm embedded gcc/bin/../lib/gcc/arm-none-eabi/7.3.1/../../../../arm-none-eabi/lib/thumb/v7e-m/fpv4-sp/hard\libg_nano.a(lib_a-malloc.o) (_free_r)
c:/users/erth0001/user/gnuarmeclipse_photon/eclipse/gnu mcu eclipse/arm embedded gcc/bin/../lib/gcc/arm-none-eabi/7.3.1/../../../../arm-none-eabi/lib/thumb/v7e-m/fpv4-sp/hard\libg_nano.a(lib_a-nano-mallocr.o)
                              c:/users/erth0001/user/gnuarmeclipse_photon/eclipse/gnu mcu eclipse/arm embedded gcc/bin/../lib/gcc/arm-none-eabi/7.3.1/../../../../arm-none-eabi/lib/thumb/v7e-m/fpv4-sp/hard\libg_nano.a(lib_a-findfp.o) (_malloc_r)
c:/users/erth0001/user/gnuarmeclipse_photon/eclipse/gnu mcu eclipse/arm embedded gcc/bin/../lib/gcc/arm-none-eabi/7.3.1/../../../../arm-none-eabi/lib/thumb/v7e-m/fpv4-sp/hard\libg_nano.a(lib_a-nano-svfprintf.o)
                              c:/users/erth0001/user/gnuarmeclipse_photon/eclipse/gnu mcu eclipse/arm embedded gcc/bin/../lib/gcc/arm-none-eabi/7.3.1/../../../../arm-none-eabi/lib/thumb/v7e-m/fpv4-sp/hard\libg_nano.a(lib_a-sprintf.o) (_svfprintf_r)
c:/users/erth0001/user/gnuarmeclipse_photon/eclipse/gnu mcu eclipse/arm embedded gcc/bin/../lib/gcc/arm-none-eabi/7.3.1/../../../../arm-none-eabi/lib/thumb/v7e-m/fpv4-sp/hard\libg_nano.a(lib_a-nano-vfprintf.o)
                              c:/users/erth0001/user/gnuarmeclipse_photon/eclipse/gnu mcu eclipse/arm embedded gcc/bin/../lib/gcc/arm-none-eabi/7.3.1/../../../../arm-none-eabi/lib/thumb/v7e-m/fpv4-sp/hard\libg_nano.a(lib_a-printf.o) (_vfprintf_r)
c:/users/erth0001/user/gnuarmeclipse_photon/eclipse/gnu mcu eclipse/arm embedded gcc/bin/../lib/gcc/arm-none-eabi/7.3.1/../../../../arm-none-eabi/lib/thumb/v7e-m/fpv4-sp/hard\libg_nano.a(lib_a-sbrkr.o)
                              c:/users/erth0001/user/gnuarmeclipse_photon/eclipse/gnu mcu eclipse/arm embedded gcc/bin/../lib/gcc/arm-none-eabi/7.3.1/../../../../arm-none-eabi/lib/thumb/v7e-m/fpv4-sp/hard\libg_nano.a(lib_a-nano-mallocr.o) (_sbrk_r)
c:/users/erth0001/user/gnuarmeclipse_photon/eclipse/gnu mcu eclipse/arm embedded gcc/bin/../lib/gcc/arm-none-eabi/7.3.1/../../../../arm-none-eabi/lib/thumb/v7e-m/fpv4-sp/hard\libg_nano.a(lib_a-stdio.o)
                              c:/users/erth0001/user/gnuarmeclipse_photon/eclipse/gnu mcu eclipse/arm embedded gcc/bin/../lib/gcc/arm-none-eabi/7.3.1/../../../../arm-none-eabi/lib/thumb/v7e-m/fpv4-sp/hard\libg_nano.a(lib_a-findfp.o) (__sread)
c:/users/erth0001/user/gnuarmeclipse_photon/eclipse/gnu mcu eclipse/arm embedded gcc/bin/../lib/gcc/arm-none-eabi/7.3.1/../../../../arm-none-eabi/lib/thumb/v7e-m/fpv4-sp/hard\libg_nano.a(lib_a-strcmp.o)
                              c:/users/erth0001/user/gnuarmeclipse_photon/eclipse/gnu mcu eclipse/arm embedded gcc/bin/../lib/gcc/arm-none-eabi/7.3.1/../../../../arm-none-eabi/lib/thumb/v7e-m/fpv4-sp/hard\libg_nano.a(lib_a-locale.o) (strcmp)
c:/users/erth0001/user/gnuarmeclipse_photon/eclipse/gnu mcu eclipse/arm embedded gcc/bin/../lib/gcc/arm-none-eabi/7.3.1/../../../../arm-none-eabi/lib/thumb/v7e-m/fpv4-sp/hard\libg_nano.a(lib_a-strncmp.o)
                              c:/users/erth0001/user/gnuarmeclipse_photon/eclipse/gnu mcu eclipse/arm embedded gcc/bin/../lib/gcc/arm-none-eabi/7.3.1/../../../../arm-none-eabi/lib/thumb/v7e-m/fpv4-sp/hard\libg_nano.a(lib_a-strtod.o) (strncmp)
c:/users/erth0001/user/gnuarmeclipse_photon/eclipse/gnu mcu eclipse/arm embedded gcc/bin/../lib/gcc/arm-none-eabi/7.3.1/../../../../arm-none-eabi/lib/thumb/v7e-m/fpv4-sp/hard\libg_nano.a(lib_a-wbuf.o)
                              c:/users/erth0001/user/gnuarmeclipse_photon/eclipse/gnu mcu eclipse/arm embedded gcc/bin/../lib/gcc/arm-none-eabi/7.3.1/../../../../arm-none-eabi/lib/thumb/v7e-m/fpv4-sp/hard\libg_nano.a(lib_a-nano-vfprintf.o) (__swbuf_r)
c:/users/erth0001/user/gnuarmeclipse_photon/eclipse/gnu mcu eclipse/arm embedded gcc/bin/../lib/gcc/arm-none-eabi/7.3.1/../../../../arm-none-eabi/lib/thumb/v7e-m/fpv4-sp/hard\libg_nano.a(lib_a-wctomb_r.o)
                              c:/users/erth0001/user/gnuarmeclipse_photon/eclipse/gnu mcu eclipse/arm embedded gcc/bin/../lib/gcc/arm-none-eabi/7.3.1/../../../../arm-none-eabi/lib/thumb/v7e-m/fpv4-sp/hard\libg_nano.a(lib_a-locale.o) (__ascii_wctomb)
c:/users/erth0001/user/gnuarmeclipse_photon/eclipse/gnu mcu eclipse/arm embedded gcc/bin/../lib/gcc/arm-none-eabi/7.3.1/../../../../arm-none-eabi/lib/thumb/v7e-m/fpv4-sp/hard\libg_nano.a(lib_a-writer.o)
                              c:/users/erth0001/user/gnuarmeclipse_photon/eclipse/gnu mcu eclipse/arm embedded gcc/bin/../lib/gcc/arm-none-eabi/7.3.1/../../../../arm-none-eabi/lib/thumb/v7e-m/fpv4-sp/hard\libg_nano.a(lib_a-stdio.o) (_write_r)
c:/users/erth0001/user/gnuarmeclipse_photon/eclipse/gnu mcu eclipse/arm embedded gcc/bin/../lib/gcc/arm-none-eabi/7.3.1/../../../../arm-none-eabi/lib/thumb/v7e-m/fpv4-sp/hard\libg_nano.a(lib_a-wsetup.o)
                              c:/users/erth0001/user/gnuarmeclipse_photon/eclipse/gnu mcu eclipse/arm embedded gcc/bin/../lib/gcc/arm-none-eabi/7.3.1/../../../../arm-none-eabi/lib/thumb/v7e-m/fpv4-sp/hard\libg_nano.a(lib_a-nano-vfprintf.o) (__swsetup_r)
c:/users/erth0001/user/gnuarmeclipse_photon/eclipse/gnu mcu eclipse/arm embedded gcc/bin/../lib/gcc/arm-none-eabi/7.3.1/../../../../arm-none-eabi/lib/thumb/v7e-m/fpv4-sp/hard\libg_nano.a(lib_a-closer.o)
                              c:/users/erth0001/user/gnuarmeclipse_photon/eclipse/gnu mcu eclipse/arm embedded gcc/bin/../lib/gcc/arm-none-eabi/7.3.1/../../../../arm-none-eabi/lib/thumb/v7e-m/fpv4-sp/hard\libg_nano.a(lib_a-stdio.o) (_close_r)
c:/users/erth0001/user/gnuarmeclipse_photon/eclipse/gnu mcu eclipse/arm embedded gcc/bin/../lib/gcc/arm-none-eabi/7.3.1/../../../../arm-none-eabi/lib/thumb/v7e-m/fpv4-sp/hard\libg_nano.a(lib_a-ctype_.o)
                              c:/users/erth0001/user/gnuarmeclipse_photon/eclipse/gnu mcu eclipse/arm embedded gcc/bin/../lib/gcc/arm-none-eabi/7.3.1/../../../../arm-none-eabi/lib/thumb/v7e-m/fpv4-sp/hard\libg_nano.a(lib_a-locale.o) (_ctype_)
c:/users/erth0001/user/gnuarmeclipse_photon/eclipse/gnu mcu eclipse/arm embedded gcc/bin/../lib/gcc/arm-none-eabi/7.3.1/../../../../arm-none-eabi/lib/thumb/v7e-m/fpv4-sp/hard\libg_nano.a(lib_a-fflush.o)
                              c:/users/erth0001/user/gnuarmeclipse_photon/eclipse/gnu mcu eclipse/arm embedded gcc/bin/../lib/gcc/arm-none-eabi/7.3.1/../../../../arm-none-eabi/lib/thumb/v7e-m/fpv4-sp/hard\libg_nano.a(lib_a-findfp.o) (_fflush_r)
c:/users/erth0001/user/gnuarmeclipse_photon/eclipse/gnu mcu eclipse/arm embedded gcc/bin/../lib/gcc/arm-none-eabi/7.3.1/../../../../arm-none-eabi/lib/thumb/v7e-m/fpv4-sp/hard\libg_nano.a(lib_a-fvwrite.o)
                              c:/users/erth0001/user/gnuarmeclipse_photon/eclipse/gnu mcu eclipse/arm embedded gcc/bin/../lib/gcc/arm-none-eabi/7.3.1/../../../../arm-none-eabi/lib/thumb/v7e-m/fpv4-sp/hard\libg_nano.a(lib_a-nano-vfprintf.o) (__sfvwrite_r)
c:/users/erth0001/user/gnuarmeclipse_photon/eclipse/gnu mcu eclipse/arm embedded gcc/bin/../lib/gcc/arm-none-eabi/7.3.1/../../../../arm-none-eabi/lib/thumb/v7e-m/fpv4-sp/hard\libg_nano.a(lib_a-lseekr.o)
                              c:/users/erth0001/user/gnuarmeclipse_photon/eclipse/gnu mcu eclipse/arm embedded gcc/bin/../lib/gcc/arm-none-eabi/7.3.1/../../../../arm-none-eabi/lib/thumb/v7e-m/fpv4-sp/hard\libg_nano.a(lib_a-stdio.o) (_lseek_r)
c:/users/erth0001/user/gnuarmeclipse_photon/eclipse/gnu mcu eclipse/arm embedded gcc/bin/../lib/gcc/arm-none-eabi/7.3.1/../../../../arm-none-eabi/lib/thumb/v7e-m/fpv4-sp/hard\libg_nano.a(lib_a-makebuf.o)
                              c:/users/erth0001/user/gnuarmeclipse_photon/eclipse/gnu mcu eclipse/arm embedded gcc/bin/../lib/gcc/arm-none-eabi/7.3.1/../../../../arm-none-eabi/lib/thumb/v7e-m/fpv4-sp/hard\libg_nano.a(lib_a-wsetup.o) (__smakebuf_r)
c:/users/erth0001/user/gnuarmeclipse_photon/eclipse/gnu mcu eclipse/arm embedded gcc/bin/../lib/gcc/arm-none-eabi/7.3.1/../../../../arm-none-eabi/lib/thumb/v7e-m/fpv4-sp/hard\libg_nano.a(lib_a-memmove.o)
                              c:/users/erth0001/user/gnuarmeclipse_photon/eclipse/gnu mcu eclipse/arm embedded gcc/bin/../lib/gcc/arm-none-eabi/7.3.1/../../../../arm-none-eabi/lib/thumb/v7e-m/fpv4-sp/hard\libg_nano.a(lib_a-nano-svfprintf.o) (memmove)
c:/users/erth0001/user/gnuarmeclipse_photon/eclipse/gnu mcu eclipse/arm embedded gcc/bin/../lib/gcc/arm-none-eabi/7.3.1/../../../../arm-none-eabi/lib/thumb/v7e-m/fpv4-sp/hard\libg_nano.a(lib_a-mlock.o)
                              c:/users/erth0001/user/gnuarmeclipse_photon/eclipse/gnu mcu eclipse/arm embedded gcc/bin/../lib/gcc/arm-none-eabi/7.3.1/../../../../arm-none-eabi/lib/thumb/v7e-m/fpv4-sp/hard\libg_nano.a(lib_a-nano-freer.o) (__malloc_lock)
c:/users/erth0001/user/gnuarmeclipse_photon/eclipse/gnu mcu eclipse/arm embedded gcc/bin/../lib/gcc/arm-none-eabi/7.3.1/../../../../arm-none-eabi/lib/thumb/v7e-m/fpv4-sp/hard\libg_nano.a(lib_a-nano-reallocr.o)
                              c:/users/erth0001/user/gnuarmeclipse_photon/eclipse/gnu mcu eclipse/arm embedded gcc/bin/../lib/gcc/arm-none-eabi/7.3.1/../../../../arm-none-eabi/lib/thumb/v7e-m/fpv4-sp/hard\libg_nano.a(lib_a-nano-svfprintf.o) (_realloc_r)
c:/users/erth0001/user/gnuarmeclipse_photon/eclipse/gnu mcu eclipse/arm embedded gcc/bin/../lib/gcc/arm-none-eabi/7.3.1/../../../../arm-none-eabi/lib/thumb/v7e-m/fpv4-sp/hard\libg_nano.a(lib_a-readr.o)
                              c:/users/erth0001/user/gnuarmeclipse_photon/eclipse/gnu mcu eclipse/arm embedded gcc/bin/../lib/gcc/arm-none-eabi/7.3.1/../../../../arm-none-eabi/lib/thumb/v7e-m/fpv4-sp/hard\libg_nano.a(lib_a-stdio.o) (_read_r)
c:/users/erth0001/user/gnuarmeclipse_photon/eclipse/gnu mcu eclipse/arm embedded gcc/bin/../lib/gcc/arm-none-eabi/7.3.1/../../../../arm-none-eabi/lib/thumb/v7e-m/fpv4-sp/hard\libg_nano.a(lib_a-reent.o)
                              c:/users/erth0001/user/gnuarmeclipse_photon/eclipse/gnu mcu eclipse/arm embedded gcc/bin/../lib/gcc/arm-none-eabi/7.3.1/../../../../arm-none-eabi/lib/thumb/v7e-m/fpv4-sp/hard\libg_nano.a(lib_a-sbrkr.o) (errno)
c:/users/erth0001/user/gnuarmeclipse_photon/eclipse/gnu mcu eclipse/arm embedded gcc/bin/../lib/gcc/arm-none-eabi/7.3.1/../../../../arm-none-eabi/lib/thumb/v7e-m/fpv4-sp/hard\libg_nano.a(lib_a-fstatr.o)
                              c:/users/erth0001/user/gnuarmeclipse_photon/eclipse/gnu mcu eclipse/arm embedded gcc/bin/../lib/gcc/arm-none-eabi/7.3.1/../../../../arm-none-eabi/lib/thumb/v7e-m/fpv4-sp/hard\libg_nano.a(lib_a-makebuf.o) (_fstat_r)
c:/users/erth0001/user/gnuarmeclipse_photon/eclipse/gnu mcu eclipse/arm embedded gcc/bin/../lib/gcc/arm-none-eabi/7.3.1/../../../../arm-none-eabi/lib/thumb/v7e-m/fpv4-sp/hard\libg_nano.a(lib_a-isattyr.o)
                              c:/users/erth0001/user/gnuarmeclipse_photon/eclipse/gnu mcu eclipse/arm embedded gcc/bin/../lib/gcc/arm-none-eabi/7.3.1/../../../../arm-none-eabi/lib/thumb/v7e-m/fpv4-sp/hard\libg_nano.a(lib_a-makebuf.o) (_isatty_r)
c:/users/erth0001/user/gnuarmeclipse_photon/eclipse/gnu mcu eclipse/arm embedded gcc/bin/../lib/gcc/arm-none-eabi/7.3.1/../../../../arm-none-eabi/lib/thumb/v7e-m/fpv4-sp/hard\libg_nano.a(lib_a-nano-msizer.o)
                              c:/users/erth0001/user/gnuarmeclipse_photon/eclipse/gnu mcu eclipse/arm embedded gcc/bin/../lib/gcc/arm-none-eabi/7.3.1/../../../../arm-none-eabi/lib/thumb/v7e-m/fpv4-sp/hard\libg_nano.a(lib_a-nano-reallocr.o) (_malloc_usable_size_r)
c:/users/erth0001/user/gnuarmeclipse_photon/eclipse/gnu mcu eclipse/arm embedded gcc/bin/../lib/gcc/arm-none-eabi/7.3.1/thumb/v7e-m/fpv4-sp/hard\libgcc.a(_arm_addsubdf3.o)
                              c:/users/erth0001/user/gnuarmeclipse_photon/eclipse/gnu mcu eclipse/arm embedded gcc/bin/../lib/gcc/arm-none-eabi/7.3.1/../../../../arm-none-eabi/lib/thumb/v7e-m/fpv4-sp/hard\libg_nano.a(lib_a-strtod.o) (__aeabi_dsub)
c:/users/erth0001/user/gnuarmeclipse_photon/eclipse/gnu mcu eclipse/arm embedded gcc/bin/../lib/gcc/arm-none-eabi/7.3.1/thumb/v7e-m/fpv4-sp/hard\libgcc.a(_arm_muldivdf3.o)
                              c:/users/erth0001/user/gnuarmeclipse_photon/eclipse/gnu mcu eclipse/arm embedded gcc/bin/../lib/gcc/arm-none-eabi/7.3.1/../../../../arm-none-eabi/lib/thumb/v7e-m/fpv4-sp/hard\libg_nano.a(lib_a-strtod.o) (__aeabi_dmul)
c:/users/erth0001/user/gnuarmeclipse_photon/eclipse/gnu mcu eclipse/arm embedded gcc/bin/../lib/gcc/arm-none-eabi/7.3.1/thumb/v7e-m/fpv4-sp/hard\libgcc.a(_arm_cmpdf2.o)
                              c:/users/erth0001/user/gnuarmeclipse_photon/eclipse/gnu mcu eclipse/arm embedded gcc/bin/../lib/gcc/arm-none-eabi/7.3.1/../../../../arm-none-eabi/lib/thumb/v7e-m/fpv4-sp/hard\libg_nano.a(lib_a-nano-vfprintf_float.o) (__aeabi_dcmpeq)
c:/users/erth0001/user/gnuarmeclipse_photon/eclipse/gnu mcu eclipse/arm embedded gcc/bin/../lib/gcc/arm-none-eabi/7.3.1/thumb/v7e-m/fpv4-sp/hard\libgcc.a(_arm_unorddf2.o)
                              c:/users/erth0001/user/gnuarmeclipse_photon/eclipse/gnu mcu eclipse/arm embedded gcc/bin/../lib/gcc/arm-none-eabi/7.3.1/../../../../arm-none-eabi/lib/thumb/v7e-m/fpv4-sp/hard\libg_nano.a(lib_a-nano-vfprintf_float.o) (__aeabi_dcmpun)
c:/users/erth0001/user/gnuarmeclipse_photon/eclipse/gnu mcu eclipse/arm embedded gcc/bin/../lib/gcc/arm-none-eabi/7.3.1/thumb/v7e-m/fpv4-sp/hard\libgcc.a(_arm_fixdfsi.o)
                              c:/users/erth0001/user/gnuarmeclipse_photon/eclipse/gnu mcu eclipse/arm embedded gcc/bin/../lib/gcc/arm-none-eabi/7.3.1/../../../../arm-none-eabi/lib/thumb/v7e-m/fpv4-sp/hard\libg_nano.a(lib_a-strtod.o) (__aeabi_d2iz)
c:/users/erth0001/user/gnuarmeclipse_photon/eclipse/gnu mcu eclipse/arm embedded gcc/bin/../lib/gcc/arm-none-eabi/7.3.1/thumb/v7e-m/fpv4-sp/hard\libgcc.a(_arm_fixunsdfsi.o)
                              c:/users/erth0001/user/gnuarmeclipse_photon/eclipse/gnu mcu eclipse/arm embedded gcc/bin/../lib/gcc/arm-none-eabi/7.3.1/../../../../arm-none-eabi/lib/thumb/v7e-m/fpv4-sp/hard\libg_nano.a(lib_a-strtod.o) (__aeabi_d2uiz)
c:/users/erth0001/user/gnuarmeclipse_photon/eclipse/gnu mcu eclipse/arm embedded gcc/bin/../lib/gcc/arm-none-eabi/7.3.1/../../../../arm-none-eabi/lib/thumb/v7e-m/fpv4-sp/hard\librdimon_nano.a(rdimon-syscalls.o)
                              c:/users/erth0001/user/gnuarmeclipse_photon/eclipse/gnu mcu eclipse/arm embedded gcc/bin/../lib/gcc/arm-none-eabi/7.3.1/../../../../arm-none-eabi/lib/thumb/v7e-m/fpv4-sp/hard\libg_nano.a(lib_a-readr.o) (_read)
c:/users/erth0001/user/gnuarmeclipse_photon/eclipse/gnu mcu eclipse/arm embedded gcc/bin/../lib/gcc/arm-none-eabi/7.3.1/../../../../arm-none-eabi/lib/thumb/v7e-m/fpv4-sp/hard\libc_nano.a(lib_a-errno.o)
                              c:/users/erth0001/user/gnuarmeclipse_photon/eclipse/gnu mcu eclipse/arm embedded gcc/bin/../lib/gcc/arm-none-eabi/7.3.1/../../../../arm-none-eabi/lib/thumb/v7e-m/fpv4-sp/hard\librdimon_nano.a(rdimon-syscalls.o) (__errno)

Allocating common symbols
Common symbol       size              file

errno               0x4               c:/users/erth0001/user/gnuarmeclipse_photon/eclipse/gnu mcu eclipse/arm embedded gcc/bin/../lib/gcc/arm-none-eabi/7.3.1/../../../../arm-none-eabi/lib/thumb/v7e-m/fpv4-sp/hard\libg_nano.a(lib_a-reent.o)
dma_rx_buffer_pong  0x800             ./system/include/platform/platform.o
u16LeftHpOut        0x2               ./system/include/S6E2CCA/PDL/wm8731.o
dma_tx_buffer_pong  0x800             ./system/include/platform/platform.o
FM4_GUI             0x28              ./system/include/platform/platform.o
u16RightHpOut       0x2               ./system/include/S6E2CCA/PDL/wm8731.o
dma_tx_buffer_ping  0x800             ./system/include/platform/platform.o
stcDES              0x38              ./system/include/platform/platform.o
pstcI2cInstance     0x4               ./system/include/S6E2CCA/PDL/wm8731.o
dma_rx_buffer_ping  0x800             ./system/include/platform/platform.o

Discarded input sections

 .group         0x0000000000000000        0xc ./system/include/platform/FM4_slider_interface.o
 .group         0x0000000000000000        0xc ./system/include/platform/FM4_slider_interface.o
 .group         0x0000000000000000        0xc ./system/include/platform/FM4_slider_interface.o
 .group         0x0000000000000000        0xc ./system/include/platform/FM4_slider_interface.o
 .group         0x0000000000000000        0xc ./system/include/platform/FM4_slider_interface.o
 .group         0x0000000000000000        0xc ./system/include/platform/FM4_slider_interface.o
 .group         0x0000000000000000        0xc ./system/include/platform/FM4_slider_interface.o
 .group         0x0000000000000000        0xc ./system/include/platform/FM4_slider_interface.o
 .group         0x0000000000000000        0xc ./system/include/platform/FM4_slider_interface.o
 .group         0x0000000000000000        0xc ./system/include/platform/FM4_slider_interface.o
 .group         0x0000000000000000        0xc ./system/include/platform/FM4_slider_interface.o
 .group         0x0000000000000000        0xc ./system/include/platform/FM4_slider_interface.o
 .group         0x0000000000000000        0xc ./system/include/platform/FM4_slider_interface.o
 .group         0x0000000000000000        0xc ./system/include/platform/FM4_slider_interface.o
 .group         0x0000000000000000        0xc ./system/include/platform/FM4_slider_interface.o
 .group         0x0000000000000000        0xc ./system/include/platform/FM4_slider_interface.o
 .group         0x0000000000000000        0xc ./system/include/platform/FM4_slider_interface.o
 .group         0x0000000000000000        0xc ./system/include/platform/FM4_slider_interface.o
 .group         0x0000000000000000        0xc ./system/include/platform/FM4_slider_interface.o
 .group         0x0000000000000000        0xc ./system/include/platform/FM4_slider_interface.o
 .group         0x0000000000000000        0xc ./system/include/platform/FM4_slider_interface.o
 .group         0x0000000000000000        0xc ./system/include/platform/FM4_slider_interface.o
 .group         0x0000000000000000        0xc ./system/include/platform/FM4_slider_interface.o
 .group         0x0000000000000000        0xc ./system/include/platform/FM4_slider_interface.o
 .group         0x0000000000000000        0xc ./system/include/platform/FM4_slider_interface.o
 .group         0x0000000000000000        0xc ./system/include/platform/FM4_slider_interface.o
 .group         0x0000000000000000        0xc ./system/include/platform/FM4_slider_interface.o
 .group         0x0000000000000000        0xc ./system/include/platform/FM4_slider_interface.o
 .group         0x0000000000000000        0xc ./system/include/platform/FM4_slider_interface.o
 .group         0x0000000000000000        0xc ./system/include/platform/FM4_slider_interface.o
 .group         0x0000000000000000        0xc ./system/include/platform/FM4_slider_interface.o
 .group         0x0000000000000000        0xc ./system/include/platform/FM4_slider_interface.o
 .group         0x0000000000000000        0xc ./system/include/platform/FM4_slider_interface.o
 .group         0x0000000000000000        0xc ./system/include/platform/FM4_slider_interface.o
 .group         0x0000000000000000        0xc ./system/include/platform/FM4_slider_interface.o
 .group         0x0000000000000000        0xc ./system/include/platform/FM4_slider_interface.o
 .group         0x0000000000000000        0xc ./system/include/platform/FM4_slider_interface.o
 .group         0x0000000000000000        0xc ./system/include/platform/FM4_slider_interface.o
 .group         0x0000000000000000        0xc ./system/include/platform/FM4_slider_interface.o
 .group         0x0000000000000000        0xc ./system/include/platform/FM4_slider_interface.o
 .group         0x0000000000000000        0xc ./system/include/platform/FM4_slider_interface.o
 .group         0x0000000000000000        0xc ./system/include/platform/FM4_slider_interface.o
 .group         0x0000000000000000        0xc ./system/include/platform/FM4_slider_interface.o
 .group         0x0000000000000000        0xc ./system/include/platform/FM4_slider_interface.o
 .group         0x0000000000000000        0xc ./system/include/platform/FM4_slider_interface.o
 .group         0x0000000000000000        0xc ./system/include/platform/FM4_slider_interface.o
 .group         0x0000000000000000        0xc ./system/include/platform/FM4_slider_interface.o
 .group         0x0000000000000000        0xc ./system/include/platform/FM4_slider_interface.o
 .group         0x0000000000000000        0xc ./system/include/platform/FM4_slider_interface.o
 .group         0x0000000000000000        0xc ./system/include/platform/FM4_slider_interface.o
 .group         0x0000000000000000        0xc ./system/include/platform/FM4_slider_interface.o
 .group         0x0000000000000000        0xc ./system/include/platform/FM4_slider_interface.o
 .text          0x0000000000000000        0x0 ./system/include/platform/FM4_slider_interface.o
 .data          0x0000000000000000        0x0 ./system/include/platform/FM4_slider_interface.o
 .bss           0x0000000000000000        0x0 ./system/include/platform/FM4_slider_interface.o
 .text.init_slider_interface
                0x0000000000000000       0x68 ./system/include/platform/FM4_slider_interface.o
 .text.update_slider_parameters
                0x0000000000000000      0x140 ./system/include/platform/FM4_slider_interface.o
 .text.setLIandHPlevels
                0x0000000000000000       0x90 ./system/include/platform/FM4_slider_interface.o
 .bss.oldPvals5.58964
                0x0000000000000000        0x4 ./system/include/platform/FM4_slider_interface.o
 .bss.oldPvals4.58965
                0x0000000000000000        0x4 ./system/include/platform/FM4_slider_interface.o
 .debug_info    0x0000000000000000     0x46a1 ./system/include/platform/FM4_slider_interface.o
 .debug_abbrev  0x0000000000000000      0x24c ./system/include/platform/FM4_slider_interface.o
 .debug_aranges
                0x0000000000000000       0x30 ./system/include/platform/FM4_slider_interface.o
 .debug_ranges  0x0000000000000000       0x20 ./system/include/platform/FM4_slider_interface.o
 .debug_macro   0x0000000000000000      0x2ea ./system/include/platform/FM4_slider_interface.o
 .debug_macro   0x0000000000000000      0xa5a ./system/include/platform/FM4_slider_interface.o
 .debug_macro   0x0000000000000000       0x22 ./system/include/platform/FM4_slider_interface.o
 .debug_macro   0x0000000000000000       0x5e ./system/include/platform/FM4_slider_interface.o
 .debug_macro   0x0000000000000000       0x18 ./system/include/platform/FM4_slider_interface.o
 .debug_macro   0x0000000000000000       0x94 ./system/include/platform/FM4_slider_interface.o
 .debug_macro   0x0000000000000000       0x35 ./system/include/platform/FM4_slider_interface.o
 .debug_macro   0x0000000000000000       0x34 ./system/include/platform/FM4_slider_interface.o
 .debug_macro   0x0000000000000000       0x16 ./system/include/platform/FM4_slider_interface.o
 .debug_macro   0x0000000000000000       0x57 ./system/include/platform/FM4_slider_interface.o
 .debug_macro   0x0000000000000000       0x97 ./system/include/platform/FM4_slider_interface.o
 .debug_macro   0x0000000000000000      0x330 ./system/include/platform/FM4_slider_interface.o
 .debug_macro   0x0000000000000000       0xfd ./system/include/platform/FM4_slider_interface.o
 .debug_macro   0x0000000000000000       0x10 ./system/include/platform/FM4_slider_interface.o
 .debug_macro   0x0000000000000000       0x58 ./system/include/platform/FM4_slider_interface.o
 .debug_macro   0x0000000000000000       0x1f ./system/include/platform/FM4_slider_interface.o
 .debug_macro   0x0000000000000000       0x43 ./system/include/platform/FM4_slider_interface.o
 .debug_macro   0x0000000000000000       0x20 ./system/include/platform/FM4_slider_interface.o
 .debug_macro   0x0000000000000000      0x18e ./system/include/platform/FM4_slider_interface.o
 .debug_macro   0x0000000000000000       0x10 ./system/include/platform/FM4_slider_interface.o
 .debug_macro   0x0000000000000000       0x6a ./system/include/platform/FM4_slider_interface.o
 .debug_macro   0x0000000000000000       0x1c ./system/include/platform/FM4_slider_interface.o
 .debug_macro   0x0000000000000000       0x52 ./system/include/platform/FM4_slider_interface.o
 .debug_macro   0x0000000000000000       0x40 ./system/include/platform/FM4_slider_interface.o
 .debug_macro   0x0000000000000000       0x10 ./system/include/platform/FM4_slider_interface.o
 .debug_macro   0x0000000000000000       0x40 ./system/include/platform/FM4_slider_interface.o
 .debug_macro   0x0000000000000000       0xd7 ./system/include/platform/FM4_slider_interface.o
 .debug_macro   0x0000000000000000       0x1c ./system/include/platform/FM4_slider_interface.o
 .debug_macro   0x0000000000000000       0x3d ./system/include/platform/FM4_slider_interface.o
 .debug_macro   0x0000000000000000       0x16 ./system/include/platform/FM4_slider_interface.o
 .debug_macro   0x0000000000000000      0x16f ./system/include/platform/FM4_slider_interface.o
 .debug_macro   0x0000000000000000       0x16 ./system/include/platform/FM4_slider_interface.o
 .debug_macro   0x0000000000000000       0x35 ./system/include/platform/FM4_slider_interface.o
 .debug_macro   0x0000000000000000       0x16 ./system/include/platform/FM4_slider_interface.o
 .debug_macro   0x0000000000000000       0x29 ./system/include/platform/FM4_slider_interface.o
 .debug_macro   0x0000000000000000       0x16 ./system/include/platform/FM4_slider_interface.o
 .debug_macro   0x0000000000000000      0x34e ./system/include/platform/FM4_slider_interface.o
 .debug_macro   0x0000000000000000      0x877 ./system/include/platform/FM4_slider_interface.o
 .debug_macro   0x0000000000000000       0x3b ./system/include/platform/FM4_slider_interface.o
 .debug_macro   0x0000000000000000       0x50 ./system/include/platform/FM4_slider_interface.o
 .debug_macro   0x0000000000000000      0xe66 ./system/include/platform/FM4_slider_interface.o
 .debug_macro   0x0000000000000000    0x34e84 ./system/include/platform/FM4_slider_interface.o
 .debug_macro   0x0000000000000000      0x118 ./system/include/platform/FM4_slider_interface.o
 .debug_macro   0x0000000000000000     0x394c ./system/include/platform/FM4_slider_interface.o
 .debug_macro   0x0000000000000000       0x22 ./system/include/platform/FM4_slider_interface.o
 .debug_macro   0x0000000000000000      0x15c ./system/include/platform/FM4_slider_interface.o
 .debug_macro   0x0000000000000000     0x114a ./system/include/platform/FM4_slider_interface.o
 .debug_macro   0x0000000000000000       0x4c ./system/include/platform/FM4_slider_interface.o
 .debug_macro   0x0000000000000000      0x5cf ./system/include/platform/FM4_slider_interface.o
 .debug_macro   0x0000000000000000       0x46 ./system/include/platform/FM4_slider_interface.o
 .debug_macro   0x0000000000000000       0x22 ./system/include/platform/FM4_slider_interface.o
 .debug_macro   0x0000000000000000      0x16f ./system/include/platform/FM4_slider_interface.o
 .debug_macro   0x0000000000000000       0x52 ./system/include/platform/FM4_slider_interface.o
 .debug_line    0x0000000000000000      0x6e5 ./system/include/platform/FM4_slider_interface.o
 .debug_str     0x0000000000000000   0x1bc05e ./system/include/platform/FM4_slider_interface.o
 .comment       0x0000000000000000       0x72 ./system/include/platform/FM4_slider_interface.o
 .debug_frame   0x0000000000000000       0x84 ./system/include/platform/FM4_slider_interface.o
 .group         0x0000000000000000        0xc ./system/include/platform/platform.o
 .group         0x0000000000000000        0xc ./system/include/platform/platform.o
 .group         0x0000000000000000        0xc ./system/include/platform/platform.o
 .group         0x0000000000000000        0xc ./system/include/platform/platform.o
 .group         0x0000000000000000        0xc ./system/include/platform/platform.o
 .group         0x0000000000000000        0xc ./system/include/platform/platform.o
 .group         0x0000000000000000        0xc ./system/include/platform/platform.o
 .group         0x0000000000000000        0xc ./system/include/platform/platform.o
 .group         0x0000000000000000        0xc ./system/include/platform/platform.o
 .group         0x0000000000000000        0xc ./system/include/platform/platform.o
 .group         0x0000000000000000        0xc ./system/include/platform/platform.o
 .group         0x0000000000000000        0xc ./system/include/platform/platform.o
 .group         0x0000000000000000        0xc ./system/include/platform/platform.o
 .group         0x0000000000000000        0xc ./system/include/platform/platform.o
 .group         0x0000000000000000        0xc ./system/include/platform/platform.o
 .group         0x0000000000000000        0xc ./system/include/platform/platform.o
 .group         0x0000000000000000        0xc ./system/include/platform/platform.o
 .group         0x0000000000000000        0xc ./system/include/platform/platform.o
 .group         0x0000000000000000        0xc ./system/include/platform/platform.o
 .group         0x0000000000000000        0xc ./system/include/platform/platform.o
 .group         0x0000000000000000        0xc ./system/include/platform/platform.o
 .group         0x0000000000000000        0xc ./system/include/platform/platform.o
 .group         0x0000000000000000        0xc ./system/include/platform/platform.o
 .group         0x0000000000000000        0xc ./system/include/platform/platform.o
 .group         0x0000000000000000        0xc ./system/include/platform/platform.o
 .group         0x0000000000000000        0xc ./system/include/platform/platform.o
 .group         0x0000000000000000        0xc ./system/include/platform/platform.o
 .group         0x0000000000000000        0xc ./system/include/platform/platform.o
 .group         0x0000000000000000        0xc ./system/include/platform/platform.o
 .group         0x0000000000000000        0xc ./system/include/platform/platform.o
 .group         0x0000000000000000        0xc ./system/include/platform/platform.o
 .group         0x0000000000000000        0xc ./system/include/platform/platform.o
 .group         0x0000000000000000        0xc ./system/include/platform/platform.o
 .group         0x0000000000000000        0xc ./system/include/platform/platform.o
 .group         0x0000000000000000        0xc ./system/include/platform/platform.o
 .group         0x0000000000000000        0xc ./system/include/platform/platform.o
 .group         0x0000000000000000        0xc ./system/include/platform/platform.o
 .group         0x0000000000000000        0xc ./system/include/platform/platform.o
 .group         0x0000000000000000        0xc ./system/include/platform/platform.o
 .group         0x0000000000000000        0xc ./system/include/platform/platform.o
 .group         0x0000000000000000        0xc ./system/include/platform/platform.o
 .group         0x0000000000000000        0xc ./system/include/platform/platform.o
 .group         0x0000000000000000        0xc ./system/include/platform/platform.o
 .group         0x0000000000000000        0xc ./system/include/platform/platform.o
 .group         0x0000000000000000        0xc ./system/include/platform/platform.o
 .group         0x0000000000000000        0xc ./system/include/platform/platform.o
 .group         0x0000000000000000        0xc ./system/include/platform/platform.o
 .group         0x0000000000000000        0xc ./system/include/platform/platform.o
 .group         0x0000000000000000        0xc ./system/include/platform/platform.o
 .group         0x0000000000000000        0xc ./system/include/platform/platform.o
 .group         0x0000000000000000        0xc ./system/include/platform/platform.o
 .group         0x0000000000000000        0xc ./system/include/platform/platform.o
 .text          0x0000000000000000        0x0 ./system/include/platform/platform.o
 .data          0x0000000000000000        0x0 ./system/include/platform/platform.o
 .bss           0x0000000000000000        0x0 ./system/include/platform/platform.o
 .text.platform_init
                0x0000000000000000       0xdc ./system/include/platform/platform.o
 .text.CodecInit
                0x0000000000000000       0xa4 ./system/include/platform/platform.o
 .text.DstcInit
                0x0000000000000000      0x2cc ./system/include/platform/platform.o
 .text.I2S0Init
                0x0000000000000000      0x264 ./system/include/platform/platform.o
 .text.Uart0Init
                0x0000000000000000       0xb8 ./system/include/platform/platform.o
 .text.GpioInit
                0x0000000000000000      0x10c ./system/include/platform/platform.o
 .debug_info    0x0000000000000000    0x16257 ./system/include/platform/platform.o
 .debug_abbrev  0x0000000000000000      0x342 ./system/include/platform/platform.o
 .debug_aranges
                0x0000000000000000       0x48 ./system/include/platform/platform.o
 .debug_ranges  0x0000000000000000       0x38 ./system/include/platform/platform.o
 .debug_macro   0x0000000000000000      0x2ff ./system/include/platform/platform.o
 .debug_macro   0x0000000000000000      0xa5a ./system/include/platform/platform.o
 .debug_macro   0x0000000000000000      0x877 ./system/include/platform/platform.o
 .debug_macro   0x0000000000000000      0x34e ./system/include/platform/platform.o
 .debug_macro   0x0000000000000000       0x35 ./system/include/platform/platform.o
 .debug_macro   0x0000000000000000       0x50 ./system/include/platform/platform.o
 .debug_macro   0x0000000000000000      0xe66 ./system/include/platform/platform.o
 .debug_macro   0x0000000000000000    0x34e84 ./system/include/platform/platform.o
 .debug_macro   0x0000000000000000      0x118 ./system/include/platform/platform.o
 .debug_macro   0x0000000000000000     0x394c ./system/include/platform/platform.o
 .debug_macro   0x0000000000000000      0x174 ./system/include/platform/platform.o
 .debug_macro   0x0000000000000000       0x22 ./system/include/platform/platform.o
 .debug_macro   0x0000000000000000      0x15c ./system/include/platform/platform.o
 .debug_macro   0x0000000000000000     0x114a ./system/include/platform/platform.o
 .debug_macro   0x0000000000000000       0x4c ./system/include/platform/platform.o
 .debug_macro   0x0000000000000000      0x5cf ./system/include/platform/platform.o
 .debug_macro   0x0000000000000000       0x46 ./system/include/platform/platform.o
 .debug_macro   0x0000000000000000       0x22 ./system/include/platform/platform.o
 .debug_macro   0x0000000000000000      0x16f ./system/include/platform/platform.o
 .debug_macro   0x0000000000000000       0x52 ./system/include/platform/platform.o
 .debug_macro   0x0000000000000000       0x22 ./system/include/platform/platform.o
 .debug_macro   0x0000000000000000       0x5e ./system/include/platform/platform.o
 .debug_macro   0x0000000000000000       0x18 ./system/include/platform/platform.o
 .debug_macro   0x0000000000000000       0x94 ./system/include/platform/platform.o
 .debug_macro   0x0000000000000000       0x35 ./system/include/platform/platform.o
 .debug_macro   0x0000000000000000       0x34 ./system/include/platform/platform.o
 .debug_macro   0x0000000000000000       0x16 ./system/include/platform/platform.o
 .debug_macro   0x0000000000000000       0x57 ./system/include/platform/platform.o
 .debug_macro   0x0000000000000000       0x35 ./system/include/platform/platform.o
 .debug_macro   0x0000000000000000      0x330 ./system/include/platform/platform.o
 .debug_macro   0x0000000000000000       0x10 ./system/include/platform/platform.o
 .debug_macro   0x0000000000000000       0x58 ./system/include/platform/platform.o
 .debug_macro   0x0000000000000000       0x1f ./system/include/platform/platform.o
 .debug_macro   0x0000000000000000       0x43 ./system/include/platform/platform.o
 .debug_macro   0x0000000000000000       0x20 ./system/include/platform/platform.o
 .debug_macro   0x0000000000000000      0x18e ./system/include/platform/platform.o
 .debug_macro   0x0000000000000000       0x10 ./system/include/platform/platform.o
 .debug_macro   0x0000000000000000       0x6a ./system/include/platform/platform.o
 .debug_macro   0x0000000000000000       0x1c ./system/include/platform/platform.o
 .debug_macro   0x0000000000000000       0x52 ./system/include/platform/platform.o
 .debug_macro   0x0000000000000000       0x40 ./system/include/platform/platform.o
 .debug_macro   0x0000000000000000       0x10 ./system/include/platform/platform.o
 .debug_macro   0x0000000000000000       0x40 ./system/include/platform/platform.o
 .debug_macro   0x0000000000000000       0xd7 ./system/include/platform/platform.o
 .debug_macro   0x0000000000000000       0x1c ./system/include/platform/platform.o
 .debug_macro   0x0000000000000000       0x3d ./system/include/platform/platform.o
 .debug_macro   0x0000000000000000       0x16 ./system/include/platform/platform.o
 .debug_macro   0x0000000000000000      0x16f ./system/include/platform/platform.o
 .debug_macro   0x0000000000000000       0x16 ./system/include/platform/platform.o
 .debug_macro   0x0000000000000000       0x16 ./system/include/platform/platform.o
 .debug_macro   0x0000000000000000       0x29 ./system/include/platform/platform.o
 .debug_macro   0x0000000000000000       0x16 ./system/include/platform/platform.o
 .debug_macro   0x0000000000000000       0x64 ./system/include/platform/platform.o
 .debug_line    0x0000000000000000      0x7c9 ./system/include/platform/platform.o
 .debug_str     0x0000000000000000   0x1c27f5 ./system/include/platform/platform.o
 .comment       0x0000000000000000       0x72 ./system/include/platform/platform.o
 .debug_frame   0x0000000000000000       0xf4 ./system/include/platform/platform.o
 COMMON         0x0000000000000000     0x2060 ./system/include/platform/platform.o
 .group         0x0000000000000000        0xc ./system/include/platform/utils.o
 .group         0x0000000000000000        0xc ./system/include/platform/utils.o
 .group         0x0000000000000000        0xc ./system/include/platform/utils.o
 .group         0x0000000000000000        0xc ./system/include/platform/utils.o
 .group         0x0000000000000000        0xc ./system/include/platform/utils.o
 .group         0x0000000000000000        0xc ./system/include/platform/utils.o
 .group         0x0000000000000000        0xc ./system/include/platform/utils.o
 .group         0x0000000000000000        0xc ./system/include/platform/utils.o
 .group         0x0000000000000000        0xc ./system/include/platform/utils.o
 .group         0x0000000000000000        0xc ./system/include/platform/utils.o
 .group         0x0000000000000000        0xc ./system/include/platform/utils.o
 .group         0x0000000000000000        0xc ./system/include/platform/utils.o
 .group         0x0000000000000000        0xc ./system/include/platform/utils.o
 .group         0x0000000000000000        0xc ./system/include/platform/utils.o
 .group         0x0000000000000000        0xc ./system/include/platform/utils.o
 .group         0x0000000000000000        0xc ./system/include/platform/utils.o
 .group         0x0000000000000000        0xc ./system/include/platform/utils.o
 .group         0x0000000000000000        0xc ./system/include/platform/utils.o
 .group         0x0000000000000000        0xc ./system/include/platform/utils.o
 .text          0x0000000000000000        0x0 ./system/include/platform/utils.o
 .data          0x0000000000000000        0x0 ./system/include/platform/utils.o
 .bss           0x0000000000000000        0x0 ./system/include/platform/utils.o
 .text.gpio_set
                0x0000000000000000       0x70 ./system/include/platform/utils.o
 .text.gpio_get
                0x0000000000000000       0x78 ./system/include/platform/utils.o
 .text.writeUart0
                0x0000000000000000       0x50 ./system/include/platform/utils.o
 .text.prbs     0x0000000000000000       0x88 ./system/include/platform/utils.o
 .text.delay_ms
                0x0000000000000000       0x4c ./system/include/platform/utils.o
 .text.delay_us
                0x0000000000000000       0x48 ./system/include/platform/utils.o
 .text.delay_cycles
                0x0000000000000000       0x1e ./system/include/platform/utils.o
 .debug_info    0x0000000000000000     0x3fb6 ./system/include/platform/utils.o
 .debug_abbrev  0x0000000000000000      0x240 ./system/include/platform/utils.o
 .debug_aranges
                0x0000000000000000       0x50 ./system/include/platform/utils.o
 .debug_ranges  0x0000000000000000       0x40 ./system/include/platform/utils.o
 .debug_macro   0x0000000000000000      0x11d ./system/include/platform/utils.o
 .debug_macro   0x0000000000000000      0xa5a ./system/include/platform/utils.o
 .debug_macro   0x0000000000000000      0x877 ./system/include/platform/utils.o
 .debug_macro   0x0000000000000000      0x34e ./system/include/platform/utils.o
 .debug_macro   0x0000000000000000       0x35 ./system/include/platform/utils.o
 .debug_macro   0x0000000000000000       0x50 ./system/include/platform/utils.o
 .debug_macro   0x0000000000000000      0xe66 ./system/include/platform/utils.o
 .debug_macro   0x0000000000000000    0x34e84 ./system/include/platform/utils.o
 .debug_macro   0x0000000000000000      0x118 ./system/include/platform/utils.o
 .debug_macro   0x0000000000000000     0x394c ./system/include/platform/utils.o
 .debug_macro   0x0000000000000000      0x174 ./system/include/platform/utils.o
 .debug_macro   0x0000000000000000       0x22 ./system/include/platform/utils.o
 .debug_macro   0x0000000000000000      0x15c ./system/include/platform/utils.o
 .debug_macro   0x0000000000000000     0x114a ./system/include/platform/utils.o
 .debug_macro   0x0000000000000000       0x4c ./system/include/platform/utils.o
 .debug_macro   0x0000000000000000      0x5cf ./system/include/platform/utils.o
 .debug_macro   0x0000000000000000       0x46 ./system/include/platform/utils.o
 .debug_macro   0x0000000000000000       0x22 ./system/include/platform/utils.o
 .debug_macro   0x0000000000000000      0x16f ./system/include/platform/utils.o
 .debug_macro   0x0000000000000000       0x52 ./system/include/platform/utils.o
 .debug_line    0x0000000000000000      0x38e ./system/include/platform/utils.o
 .debug_str     0x0000000000000000   0x1b7cc2 ./system/include/platform/utils.o
 .comment       0x0000000000000000       0x72 ./system/include/platform/utils.o
 .debug_frame   0x0000000000000000      0x11c ./system/include/platform/utils.o
 .data          0x0000000000000000        0x0 ./system/include/S6E2CCA/startup/startup_s6e2cc.o
 .bss           0x0000000000000000        0x0 ./system/include/S6E2CCA/startup/startup_s6e2cc.o
 .ARM.extab.FM.reset
                0x0000000000000000        0x0 ./system/include/S6E2CCA/startup/startup_s6e2cc.o
 .group         0x0000000000000000        0xc ./system/include/S6E2CCA/PDL/clk.o
 .group         0x0000000000000000        0xc ./system/include/S6E2CCA/PDL/clk.o
 .group         0x0000000000000000        0xc ./system/include/S6E2CCA/PDL/clk.o
 .group         0x0000000000000000        0xc ./system/include/S6E2CCA/PDL/clk.o
 .group         0x0000000000000000        0xc ./system/include/S6E2CCA/PDL/clk.o
 .group         0x0000000000000000        0xc ./system/include/S6E2CCA/PDL/clk.o
 .group         0x0000000000000000        0xc ./system/include/S6E2CCA/PDL/clk.o
 .group         0x0000000000000000        0xc ./system/include/S6E2CCA/PDL/clk.o
 .group         0x0000000000000000        0xc ./system/include/S6E2CCA/PDL/clk.o
 .group         0x0000000000000000        0xc ./system/include/S6E2CCA/PDL/clk.o
 .group         0x0000000000000000        0xc ./system/include/S6E2CCA/PDL/clk.o
 .group         0x0000000000000000        0xc ./system/include/S6E2CCA/PDL/clk.o
 .group         0x0000000000000000        0xc ./system/include/S6E2CCA/PDL/clk.o
 .group         0x0000000000000000        0xc ./system/include/S6E2CCA/PDL/clk.o
 .text          0x0000000000000000        0x0 ./system/include/S6E2CCA/PDL/clk.o
 .data          0x0000000000000000        0x0 ./system/include/S6E2CCA/PDL/clk.o
 .bss           0x0000000000000000        0x0 ./system/include/S6E2CCA/PDL/clk.o
 .text.Clk_Init
                0x0000000000000000      0x1ec ./system/include/S6E2CCA/PDL/clk.o
 .text.Clk_EnableMainClock
                0x0000000000000000       0x3c ./system/include/S6E2CCA/PDL/clk.o
 .text.Clk_DisableMainClock
                0x0000000000000000       0x20 ./system/include/S6E2CCA/PDL/clk.o
 .text.Clk_EnableSubClock
                0x0000000000000000       0x3c ./system/include/S6E2CCA/PDL/clk.o
 .text.Clk_DisableSubClock
                0x0000000000000000       0x20 ./system/include/S6E2CCA/PDL/clk.o
 .text.Clk_EnablePllClock
                0x0000000000000000       0x3c ./system/include/S6E2CCA/PDL/clk.o
 .text.Clk_DisablePllClock
                0x0000000000000000       0x20 ./system/include/S6E2CCA/PDL/clk.o
 .text.Clk_SetSource
                0x0000000000000000      0x130 ./system/include/S6E2CCA/PDL/clk.o
 .text.Clk_PeripheralClockEnable
                0x0000000000000000      0x320 ./system/include/S6E2CCA/PDL/clk.o
 .text.Clk_PeripheralGetClockState
                0x0000000000000000      0x4ec ./system/include/S6E2CCA/PDL/clk.o
 .text.Clk_PeripheralClockDisable
                0x0000000000000000      0x320 ./system/include/S6E2CCA/PDL/clk.o
 .text.Clk_PeripheralClockEnableAll
                0x0000000000000000       0x2c ./system/include/S6E2CCA/PDL/clk.o
 .text.Clk_PeripheralClockDisableAll
                0x0000000000000000       0x28 ./system/include/S6E2CCA/PDL/clk.o
 .text.Clk_PeripheralSetReset
                0x0000000000000000      0x324 ./system/include/S6E2CCA/PDL/clk.o
 .text.Clk_PeripheralClearReset
                0x0000000000000000      0x324 ./system/include/S6E2CCA/PDL/clk.o
 .debug_info    0x0000000000000000     0x3eae ./system/include/S6E2CCA/PDL/clk.o
 .debug_abbrev  0x0000000000000000      0x1b7 ./system/include/S6E2CCA/PDL/clk.o
 .debug_aranges
                0x0000000000000000       0x90 ./system/include/S6E2CCA/PDL/clk.o
 .debug_ranges  0x0000000000000000       0x80 ./system/include/S6E2CCA/PDL/clk.o
 .debug_macro   0x0000000000000000       0xd2 ./system/include/S6E2CCA/PDL/clk.o
 .debug_macro   0x0000000000000000      0xa5a ./system/include/S6E2CCA/PDL/clk.o
 .debug_macro   0x0000000000000000      0x877 ./system/include/S6E2CCA/PDL/clk.o
 .debug_macro   0x0000000000000000      0x34e ./system/include/S6E2CCA/PDL/clk.o
 .debug_macro   0x0000000000000000       0x35 ./system/include/S6E2CCA/PDL/clk.o
 .debug_macro   0x0000000000000000       0x50 ./system/include/S6E2CCA/PDL/clk.o
 .debug_macro   0x0000000000000000      0xe66 ./system/include/S6E2CCA/PDL/clk.o
 .debug_macro   0x0000000000000000    0x34e84 ./system/include/S6E2CCA/PDL/clk.o
 .debug_macro   0x0000000000000000      0x118 ./system/include/S6E2CCA/PDL/clk.o
 .debug_macro   0x0000000000000000     0x394c ./system/include/S6E2CCA/PDL/clk.o
 .debug_macro   0x0000000000000000      0x174 ./system/include/S6E2CCA/PDL/clk.o
 .debug_macro   0x0000000000000000       0x22 ./system/include/S6E2CCA/PDL/clk.o
 .debug_macro   0x0000000000000000      0x15c ./system/include/S6E2CCA/PDL/clk.o
 .debug_macro   0x0000000000000000     0x114a ./system/include/S6E2CCA/PDL/clk.o
 .debug_macro   0x0000000000000000       0x46 ./system/include/S6E2CCA/PDL/clk.o
 .debug_line    0x0000000000000000      0x592 ./system/include/S6E2CCA/PDL/clk.o
 .debug_str     0x0000000000000000   0x1b5894 ./system/include/S6E2CCA/PDL/clk.o
 .comment       0x0000000000000000       0x72 ./system/include/S6E2CCA/PDL/clk.o
 .debug_frame   0x0000000000000000      0x240 ./system/include/S6E2CCA/PDL/clk.o
 .group         0x0000000000000000        0xc ./system/include/S6E2CCA/PDL/dstc.o
 .group         0x0000000000000000        0xc ./system/include/S6E2CCA/PDL/dstc.o
 .group         0x0000000000000000        0xc ./system/include/S6E2CCA/PDL/dstc.o
 .group         0x0000000000000000        0xc ./system/include/S6E2CCA/PDL/dstc.o
 .group         0x0000000000000000        0xc ./system/include/S6E2CCA/PDL/dstc.o
 .group         0x0000000000000000        0xc ./system/include/S6E2CCA/PDL/dstc.o
 .group         0x0000000000000000        0xc ./system/include/S6E2CCA/PDL/dstc.o
 .group         0x0000000000000000        0xc ./system/include/S6E2CCA/PDL/dstc.o
 .group         0x0000000000000000        0xc ./system/include/S6E2CCA/PDL/dstc.o
 .group         0x0000000000000000        0xc ./system/include/S6E2CCA/PDL/dstc.o
 .group         0x0000000000000000        0xc ./system/include/S6E2CCA/PDL/dstc.o
 .group         0x0000000000000000        0xc ./system/include/S6E2CCA/PDL/dstc.o
 .group         0x0000000000000000        0xc ./system/include/S6E2CCA/PDL/dstc.o
 .group         0x0000000000000000        0xc ./system/include/S6E2CCA/PDL/dstc.o
 .text          0x0000000000000000        0x0 ./system/include/S6E2CCA/PDL/dstc.o
 .data          0x0000000000000000        0x0 ./system/include/S6E2CCA/PDL/dstc.o
 .bss           0x0000000000000000        0x0 ./system/include/S6E2CCA/PDL/dstc.o
 .text.NVIC_EnableIRQ
                0x0000000000000000       0x34 ./system/include/S6E2CCA/PDL/dstc.o
 .text.NVIC_DisableIRQ
                0x0000000000000000       0x34 ./system/include/S6E2CCA/PDL/dstc.o
 .text.NVIC_ClearPendingIRQ
                0x0000000000000000       0x34 ./system/include/S6E2CCA/PDL/dstc.o
 .text.NVIC_SetPriority
                0x0000000000000000       0x54 ./system/include/S6E2CCA/PDL/dstc.o
 .text.Dstc_IrqHandler
                0x0000000000000000      0x134 ./system/include/S6E2CCA/PDL/dstc.o
 .text.Dstc_ReleaseStandBy
                0x0000000000000000       0x50 ./system/include/S6E2CCA/PDL/dstc.o
 .text.Dstc_Init
                0x0000000000000000      0x1b0 ./system/include/S6E2CCA/PDL/dstc.o
 .text.Dstc_DeInit
                0x0000000000000000       0x44 ./system/include/S6E2CCA/PDL/dstc.o
 .text.Dstc_SetHwdesp
                0x0000000000000000       0x4c ./system/include/S6E2CCA/PDL/dstc.o
 .text.Dstc_ReadHwdesp
                0x0000000000000000       0x30 ./system/include/S6E2CCA/PDL/dstc.o
 .text.Dstc_SetCommand
                0x0000000000000000       0x78 ./system/include/S6E2CCA/PDL/dstc.o
 .text.Dstc_SwTrigger
                0x0000000000000000       0x48 ./system/include/S6E2CCA/PDL/dstc.o
 .text.Dstc_SwTrqansferStartStatus
                0x0000000000000000       0x28 ./system/include/S6E2CCA/PDL/dstc.o
 .text.Dstc_SetDreqenb
                0x0000000000000000       0x5c ./system/include/S6E2CCA/PDL/dstc.o
 .text.Dstc_ReadDreqenb
                0x0000000000000000       0x5c ./system/include/S6E2CCA/PDL/dstc.o
 .text.Dstc_SetDreqenbBit
                0x0000000000000000       0x50 ./system/include/S6E2CCA/PDL/dstc.o
 .text.Dstc_ClearDreqenbBit
                0x0000000000000000       0x50 ./system/include/S6E2CCA/PDL/dstc.o
 .text.Dstc_ReadHwint
                0x0000000000000000       0x5c ./system/include/S6E2CCA/PDL/dstc.o
 .text.Dstc_SetHwintclr
                0x0000000000000000       0x5c ./system/include/S6E2CCA/PDL/dstc.o
 .text.Dstc_ReadDqmsk
                0x0000000000000000       0x64 ./system/include/S6E2CCA/PDL/dstc.o
 .text.Dstc_SetDqmskclr
                0x0000000000000000       0x6c ./system/include/S6E2CCA/PDL/dstc.o
 .text.Dstc_SetDqmskclrBit
                0x0000000000000000       0x54 ./system/include/S6E2CCA/PDL/dstc.o
 .debug_macro   0x0000000000000000      0xa5a ./system/include/S6E2CCA/PDL/dstc.o
 .debug_macro   0x0000000000000000      0x877 ./system/include/S6E2CCA/PDL/dstc.o
 .debug_macro   0x0000000000000000      0x34e ./system/include/S6E2CCA/PDL/dstc.o
 .debug_macro   0x0000000000000000       0x35 ./system/include/S6E2CCA/PDL/dstc.o
 .debug_macro   0x0000000000000000       0x50 ./system/include/S6E2CCA/PDL/dstc.o
 .debug_macro   0x0000000000000000      0xe66 ./system/include/S6E2CCA/PDL/dstc.o
 .debug_macro   0x0000000000000000    0x34e84 ./system/include/S6E2CCA/PDL/dstc.o
 .debug_macro   0x0000000000000000      0x118 ./system/include/S6E2CCA/PDL/dstc.o
 .debug_macro   0x0000000000000000     0x394c ./system/include/S6E2CCA/PDL/dstc.o
 .debug_macro   0x0000000000000000      0x174 ./system/include/S6E2CCA/PDL/dstc.o
 .debug_macro   0x0000000000000000       0x22 ./system/include/S6E2CCA/PDL/dstc.o
 .debug_macro   0x0000000000000000      0x15c ./system/include/S6E2CCA/PDL/dstc.o
 .debug_macro   0x0000000000000000     0x114a ./system/include/S6E2CCA/PDL/dstc.o
 .group         0x0000000000000000        0xc ./system/include/S6E2CCA/PDL/i2s.o
 .group         0x0000000000000000        0xc ./system/include/S6E2CCA/PDL/i2s.o
 .group         0x0000000000000000        0xc ./system/include/S6E2CCA/PDL/i2s.o
 .group         0x0000000000000000        0xc ./system/include/S6E2CCA/PDL/i2s.o
 .group         0x0000000000000000        0xc ./system/include/S6E2CCA/PDL/i2s.o
 .group         0x0000000000000000        0xc ./system/include/S6E2CCA/PDL/i2s.o
 .group         0x0000000000000000        0xc ./system/include/S6E2CCA/PDL/i2s.o
 .group         0x0000000000000000        0xc ./system/include/S6E2CCA/PDL/i2s.o
 .group         0x0000000000000000        0xc ./system/include/S6E2CCA/PDL/i2s.o
 .group         0x0000000000000000        0xc ./system/include/S6E2CCA/PDL/i2s.o
 .group         0x0000000000000000        0xc ./system/include/S6E2CCA/PDL/i2s.o
 .group         0x0000000000000000        0xc ./system/include/S6E2CCA/PDL/i2s.o
 .group         0x0000000000000000        0xc ./system/include/S6E2CCA/PDL/i2s.o
 .group         0x0000000000000000        0xc ./system/include/S6E2CCA/PDL/i2s.o
 .text          0x0000000000000000        0x0 ./system/include/S6E2CCA/PDL/i2s.o
 .data          0x0000000000000000        0x0 ./system/include/S6E2CCA/PDL/i2s.o
 .bss           0x0000000000000000        0x0 ./system/include/S6E2CCA/PDL/i2s.o
 .text.NVIC_EnableIRQ
                0x0000000000000000       0x34 ./system/include/S6E2CCA/PDL/i2s.o
 .text.NVIC_DisableIRQ
                0x0000000000000000       0x34 ./system/include/S6E2CCA/PDL/i2s.o
 .text.NVIC_ClearPendingIRQ
                0x0000000000000000       0x34 ./system/include/S6E2CCA/PDL/i2s.o
 .text.NVIC_SetPriority
                0x0000000000000000       0x54 ./system/include/S6E2CCA/PDL/i2s.o
 .text.I2sGetInternDataPtr
                0x0000000000000000       0x54 ./system/include/S6E2CCA/PDL/i2s.o
 .text.I2s_EnableIrq
                0x0000000000000000       0xec ./system/include/S6E2CCA/PDL/i2s.o
 .text.I2s_DisableIrq
                0x0000000000000000       0xec ./system/include/S6E2CCA/PDL/i2s.o
 .text.I2sInitNvic
                0x0000000000000000       0x24 ./system/include/S6E2CCA/PDL/i2s.o
 .text.I2sDeInitNvic
                0x0000000000000000       0x24 ./system/include/S6E2CCA/PDL/i2s.o
 .text.I2s_InitClk
                0x0000000000000000      0x188 ./system/include/S6E2CCA/PDL/i2s.o
 .text.I2s_DeInitClk
                0x0000000000000000       0x5c ./system/include/S6E2CCA/PDL/i2s.o
 .text.I2s_EnablePll
                0x0000000000000000       0x74 ./system/include/S6E2CCA/PDL/i2s.o
 .text.I2s_DisablePll
                0x0000000000000000       0x20 ./system/include/S6E2CCA/PDL/i2s.o
 .text.I2s_CheckPllReady
                0x0000000000000000       0x28 ./system/include/S6E2CCA/PDL/i2s.o
 .text.I2s_StartClk
                0x0000000000000000       0x30 ./system/include/S6E2CCA/PDL/i2s.o
 .text.I2s_StopClk
                0x0000000000000000       0x30 ./system/include/S6E2CCA/PDL/i2s.o
 .text.I2s_Init
                0x0000000000000000      0x520 ./system/include/S6E2CCA/PDL/i2s.o
 .text.I2s_DeInit
                0x0000000000000000       0xa2 ./system/include/S6E2CCA/PDL/i2s.o
 .text.I2s_Start
                0x0000000000000000       0x20 ./system/include/S6E2CCA/PDL/i2s.o
 .text.I2s_Stop
                0x0000000000000000       0x20 ./system/include/S6E2CCA/PDL/i2s.o
 .text.I2s_Reset
                0x0000000000000000       0x20 ./system/include/S6E2CCA/PDL/i2s.o
 .text.I2s_EnableTx
                0x0000000000000000       0x2a ./system/include/S6E2CCA/PDL/i2s.o
 .text.I2s_DisableTx
                0x0000000000000000       0x2a ./system/include/S6E2CCA/PDL/i2s.o
 .text.I2s_EnableRx
                0x0000000000000000       0x2a ./system/include/S6E2CCA/PDL/i2s.o
 .text.I2s_DisableRx
                0x0000000000000000       0x2a ./system/include/S6E2CCA/PDL/i2s.o
 .text.I2s_GetStatus
                0x0000000000000000      0x104 ./system/include/S6E2CCA/PDL/i2s.o
 .text.I2s_ClrStatus
                0x0000000000000000       0xbc ./system/include/S6E2CCA/PDL/i2s.o
 .text.I2s_WriteTxFifo
                0x0000000000000000       0x28 ./system/include/S6E2CCA/PDL/i2s.o
 .text.I2s_ReadRxFifo
                0x0000000000000000       0x18 ./system/include/S6E2CCA/PDL/i2s.o
 .text.I2s_GetTxFifoNumber
                0x0000000000000000       0x1e ./system/include/S6E2CCA/PDL/i2s.o
 .text.I2s_GetRxFifoNumber
                0x0000000000000000       0x1a ./system/include/S6E2CCA/PDL/i2s.o
 .debug_macro   0x0000000000000000      0xa5a ./system/include/S6E2CCA/PDL/i2s.o
 .debug_macro   0x0000000000000000      0x877 ./system/include/S6E2CCA/PDL/i2s.o
 .debug_macro   0x0000000000000000      0x34e ./system/include/S6E2CCA/PDL/i2s.o
 .debug_macro   0x0000000000000000       0x35 ./system/include/S6E2CCA/PDL/i2s.o
 .debug_macro   0x0000000000000000       0x50 ./system/include/S6E2CCA/PDL/i2s.o
 .debug_macro   0x0000000000000000      0xe66 ./system/include/S6E2CCA/PDL/i2s.o
 .debug_macro   0x0000000000000000    0x34e84 ./system/include/S6E2CCA/PDL/i2s.o
 .debug_macro   0x0000000000000000      0x118 ./system/include/S6E2CCA/PDL/i2s.o
 .debug_macro   0x0000000000000000     0x394c ./system/include/S6E2CCA/PDL/i2s.o
 .debug_macro   0x0000000000000000      0x174 ./system/include/S6E2CCA/PDL/i2s.o
 .debug_macro   0x0000000000000000       0x22 ./system/include/S6E2CCA/PDL/i2s.o
 .debug_macro   0x0000000000000000      0x15c ./system/include/S6E2CCA/PDL/i2s.o
 .debug_macro   0x0000000000000000     0x114a ./system/include/S6E2CCA/PDL/i2s.o
 .group         0x0000000000000000        0xc ./system/include/S6E2CCA/PDL/interrupts_fm4_type_b.o
 .group         0x0000000000000000        0xc ./system/include/S6E2CCA/PDL/interrupts_fm4_type_b.o
 .group         0x0000000000000000        0xc ./system/include/S6E2CCA/PDL/interrupts_fm4_type_b.o
 .group         0x0000000000000000        0xc ./system/include/S6E2CCA/PDL/interrupts_fm4_type_b.o
 .group         0x0000000000000000        0xc ./system/include/S6E2CCA/PDL/interrupts_fm4_type_b.o
 .group         0x0000000000000000        0xc ./system/include/S6E2CCA/PDL/interrupts_fm4_type_b.o
 .group         0x0000000000000000        0xc ./system/include/S6E2CCA/PDL/interrupts_fm4_type_b.o
 .group         0x0000000000000000        0xc ./system/include/S6E2CCA/PDL/interrupts_fm4_type_b.o
 .group         0x0000000000000000        0xc ./system/include/S6E2CCA/PDL/interrupts_fm4_type_b.o
 .group         0x0000000000000000        0xc ./system/include/S6E2CCA/PDL/interrupts_fm4_type_b.o
 .group         0x0000000000000000        0xc ./system/include/S6E2CCA/PDL/interrupts_fm4_type_b.o
 .group         0x0000000000000000        0xc ./system/include/S6E2CCA/PDL/interrupts_fm4_type_b.o
 .group         0x0000000000000000        0xc ./system/include/S6E2CCA/PDL/interrupts_fm4_type_b.o
 .group         0x0000000000000000        0xc ./system/include/S6E2CCA/PDL/interrupts_fm4_type_b.o
 .group         0x0000000000000000        0xc ./system/include/S6E2CCA/PDL/interrupts_fm4_type_b.o
 .text          0x0000000000000000        0x0 ./system/include/S6E2CCA/PDL/interrupts_fm4_type_b.o
 .data          0x0000000000000000        0x0 ./system/include/S6E2CCA/PDL/interrupts_fm4_type_b.o
 .bss           0x0000000000000000        0x0 ./system/include/S6E2CCA/PDL/interrupts_fm4_type_b.o
 .text.PDL_DummyHandler
                0x0000000000000000        0xa ./system/include/S6E2CCA/PDL/interrupts_fm4_type_b.o
 .debug_macro   0x0000000000000000      0xa5a ./system/include/S6E2CCA/PDL/interrupts_fm4_type_b.o
 .debug_macro   0x0000000000000000      0x877 ./system/include/S6E2CCA/PDL/interrupts_fm4_type_b.o
 .debug_macro   0x0000000000000000      0x34e ./system/include/S6E2CCA/PDL/interrupts_fm4_type_b.o
 .debug_macro   0x0000000000000000       0x35 ./system/include/S6E2CCA/PDL/interrupts_fm4_type_b.o
 .debug_macro   0x0000000000000000       0x50 ./system/include/S6E2CCA/PDL/interrupts_fm4_type_b.o
 .debug_macro   0x0000000000000000      0xe66 ./system/include/S6E2CCA/PDL/interrupts_fm4_type_b.o
 .debug_macro   0x0000000000000000    0x34e84 ./system/include/S6E2CCA/PDL/interrupts_fm4_type_b.o
 .debug_macro   0x0000000000000000      0x118 ./system/include/S6E2CCA/PDL/interrupts_fm4_type_b.o
 .debug_macro   0x0000000000000000     0x394c ./system/include/S6E2CCA/PDL/interrupts_fm4_type_b.o
 .debug_macro   0x0000000000000000      0x174 ./system/include/S6E2CCA/PDL/interrupts_fm4_type_b.o
 .debug_macro   0x0000000000000000       0x22 ./system/include/S6E2CCA/PDL/interrupts_fm4_type_b.o
 .debug_macro   0x0000000000000000      0x15c ./system/include/S6E2CCA/PDL/interrupts_fm4_type_b.o
 .debug_macro   0x0000000000000000     0x114a ./system/include/S6E2CCA/PDL/interrupts_fm4_type_b.o
 .debug_macro   0x0000000000000000       0x22 ./system/include/S6E2CCA/PDL/interrupts_fm4_type_b.o
 .debug_macro   0x0000000000000000      0x5cf ./system/include/S6E2CCA/PDL/interrupts_fm4_type_b.o
 .group         0x0000000000000000        0xc ./system/include/S6E2CCA/PDL/mfs.o
 .group         0x0000000000000000        0xc ./system/include/S6E2CCA/PDL/mfs.o
 .group         0x0000000000000000        0xc ./system/include/S6E2CCA/PDL/mfs.o
 .group         0x0000000000000000        0xc ./system/include/S6E2CCA/PDL/mfs.o
 .group         0x0000000000000000        0xc ./system/include/S6E2CCA/PDL/mfs.o
 .group         0x0000000000000000        0xc ./system/include/S6E2CCA/PDL/mfs.o
 .group         0x0000000000000000        0xc ./system/include/S6E2CCA/PDL/mfs.o
 .group         0x0000000000000000        0xc ./system/include/S6E2CCA/PDL/mfs.o
 .group         0x0000000000000000        0xc ./system/include/S6E2CCA/PDL/mfs.o
 .group         0x0000000000000000        0xc ./system/include/S6E2CCA/PDL/mfs.o
 .group         0x0000000000000000        0xc ./system/include/S6E2CCA/PDL/mfs.o
 .group         0x0000000000000000        0xc ./system/include/S6E2CCA/PDL/mfs.o
 .group         0x0000000000000000        0xc ./system/include/S6E2CCA/PDL/mfs.o
 .group         0x0000000000000000        0xc ./system/include/S6E2CCA/PDL/mfs.o
 .text          0x0000000000000000        0x0 ./system/include/S6E2CCA/PDL/mfs.o
 .data          0x0000000000000000        0x0 ./system/include/S6E2CCA/PDL/mfs.o
 .bss           0x0000000000000000        0x0 ./system/include/S6E2CCA/PDL/mfs.o
 .data.m_astcMfsInstanceDataLut
                0x0000000000000000       0x48 ./system/include/S6E2CCA/PDL/mfs.o
 .text.MfsUartGetInternDataPtr
                0x0000000000000000       0x60 ./system/include/S6E2CCA/PDL/mfs.o
 .text.Mfs_Uart_Init
                0x0000000000000000      0x2c8 ./system/include/S6E2CCA/PDL/mfs.o
 .text.Mfs_Uart_DeInit
                0x0000000000000000       0x92 ./system/include/S6E2CCA/PDL/mfs.o
 .text.Mfs_Uart_SetBaudRate
                0x0000000000000000       0x60 ./system/include/S6E2CCA/PDL/mfs.o
 .text.Mfs_Uart_EnableFunc
                0x0000000000000000       0x4c ./system/include/S6E2CCA/PDL/mfs.o
 .text.Mfs_Uart_DisableFunc
                0x0000000000000000       0x4c ./system/include/S6E2CCA/PDL/mfs.o
 .text.Mfs_Uart_GetStatus
                0x0000000000000000       0xac ./system/include/S6E2CCA/PDL/mfs.o
 .text.Mfs_Uart_ClrStatus
                0x0000000000000000       0x6c ./system/include/S6E2CCA/PDL/mfs.o
 .text.Mfs_Uart_SendData
                0x0000000000000000       0x2a ./system/include/S6E2CCA/PDL/mfs.o
 .text.Mfs_Uart_ReceiveData
                0x0000000000000000       0x1a ./system/include/S6E2CCA/PDL/mfs.o
 .text.Mfs_Uart_ResetFifo
                0x0000000000000000       0x4c ./system/include/S6E2CCA/PDL/mfs.o
 .text.Mfs_Uart_SetFifoCount
                0x0000000000000000       0x48 ./system/include/S6E2CCA/PDL/mfs.o
 .text.Mfs_Uart_GetFifoCount
                0x0000000000000000       0x3a ./system/include/S6E2CCA/PDL/mfs.o
 .text.MfsI2cGetInternDataPtr
                0x0000000000000000       0x64 ./system/include/S6E2CCA/PDL/mfs.o
 .text.Mfs_I2c_Init
                0x0000000000000000      0x19c ./system/include/S6E2CCA/PDL/mfs.o
 .text.Mfs_I2c_DeInit
                0x0000000000000000       0x78 ./system/include/S6E2CCA/PDL/mfs.o
 .text.Mfs_I2c_SetBaudRate
                0x0000000000000000       0x94 ./system/include/S6E2CCA/PDL/mfs.o
 .text.Mfs_I2c_GenerateStart
                0x0000000000000000       0x60 ./system/include/S6E2CCA/PDL/mfs.o
 .text.Mfs_I2c_GenerateRestart
                0x0000000000000000       0x54 ./system/include/S6E2CCA/PDL/mfs.o
 .text.Mfs_I2c_GenerateStop
                0x0000000000000000       0x64 ./system/include/S6E2CCA/PDL/mfs.o
 .text.Mfs_I2c_SendData
                0x0000000000000000       0x2c ./system/include/S6E2CCA/PDL/mfs.o
 .text.Mfs_I2c_ReceiveData
                0x0000000000000000       0x1c ./system/include/S6E2CCA/PDL/mfs.o
 .text.Mfs_I2c_ConfigAck
                0x0000000000000000       0x54 ./system/include/S6E2CCA/PDL/mfs.o
 .text.Mfs_I2c_GetAck
                0x0000000000000000       0x22 ./system/include/S6E2CCA/PDL/mfs.o
 .text.Mfs_I2c_GetStatus
                0x0000000000000000      0x120 ./system/include/S6E2CCA/PDL/mfs.o
 .text.Mfs_I2c_ClrStatus
                0x0000000000000000       0xa0 ./system/include/S6E2CCA/PDL/mfs.o
 .text.Mfs_I2c_GetDataDir
                0x0000000000000000       0x2e ./system/include/S6E2CCA/PDL/mfs.o
 .text.Mfs_I2c_ResetFifo
                0x0000000000000000       0x4c ./system/include/S6E2CCA/PDL/mfs.o
 .text.Mfs_I2c_SetFifoCount
                0x0000000000000000       0x48 ./system/include/S6E2CCA/PDL/mfs.o
 .text.Mfs_I2c_GetFifoCount
                0x0000000000000000       0x3a ./system/include/S6E2CCA/PDL/mfs.o
 .debug_info    0x0000000000000000     0x53e5 ./system/include/S6E2CCA/PDL/mfs.o
 .debug_abbrev  0x0000000000000000      0x1e1 ./system/include/S6E2CCA/PDL/mfs.o
 .debug_aranges
                0x0000000000000000      0x108 ./system/include/S6E2CCA/PDL/mfs.o
 .debug_ranges  0x0000000000000000       0xf8 ./system/include/S6E2CCA/PDL/mfs.o
 .debug_macro   0x0000000000000000       0xea ./system/include/S6E2CCA/PDL/mfs.o
 .debug_macro   0x0000000000000000      0xa5a ./system/include/S6E2CCA/PDL/mfs.o
 .debug_macro   0x0000000000000000      0x877 ./system/include/S6E2CCA/PDL/mfs.o
 .debug_macro   0x0000000000000000      0x34e ./system/include/S6E2CCA/PDL/mfs.o
 .debug_macro   0x0000000000000000       0x35 ./system/include/S6E2CCA/PDL/mfs.o
 .debug_macro   0x0000000000000000       0x50 ./system/include/S6E2CCA/PDL/mfs.o
 .debug_macro   0x0000000000000000      0xe66 ./system/include/S6E2CCA/PDL/mfs.o
 .debug_macro   0x0000000000000000    0x34e84 ./system/include/S6E2CCA/PDL/mfs.o
 .debug_macro   0x0000000000000000      0x118 ./system/include/S6E2CCA/PDL/mfs.o
 .debug_macro   0x0000000000000000     0x394c ./system/include/S6E2CCA/PDL/mfs.o
 .debug_macro   0x0000000000000000      0x174 ./system/include/S6E2CCA/PDL/mfs.o
 .debug_macro   0x0000000000000000       0x22 ./system/include/S6E2CCA/PDL/mfs.o
 .debug_macro   0x0000000000000000      0x15c ./system/include/S6E2CCA/PDL/mfs.o
 .debug_macro   0x0000000000000000     0x114a ./system/include/S6E2CCA/PDL/mfs.o
 .debug_macro   0x0000000000000000      0x169 ./system/include/S6E2CCA/PDL/mfs.o
 .debug_line    0x0000000000000000      0x632 ./system/include/S6E2CCA/PDL/mfs.o
 .debug_str     0x0000000000000000   0x1b6812 ./system/include/S6E2CCA/PDL/mfs.o
 .comment       0x0000000000000000       0x72 ./system/include/S6E2CCA/PDL/mfs.o
 .debug_frame   0x0000000000000000      0x4ac ./system/include/S6E2CCA/PDL/mfs.o
 .group         0x0000000000000000        0xc ./system/include/S6E2CCA/PDL/pdl.o
 .group         0x0000000000000000        0xc ./system/include/S6E2CCA/PDL/pdl.o
 .group         0x0000000000000000        0xc ./system/include/S6E2CCA/PDL/pdl.o
 .group         0x0000000000000000        0xc ./system/include/S6E2CCA/PDL/pdl.o
 .group         0x0000000000000000        0xc ./system/include/S6E2CCA/PDL/pdl.o
 .group         0x0000000000000000        0xc ./system/include/S6E2CCA/PDL/pdl.o
 .group         0x0000000000000000        0xc ./system/include/S6E2CCA/PDL/pdl.o
 .group         0x0000000000000000        0xc ./system/include/S6E2CCA/PDL/pdl.o
 .group         0x0000000000000000        0xc ./system/include/S6E2CCA/PDL/pdl.o
 .group         0x0000000000000000        0xc ./system/include/S6E2CCA/PDL/pdl.o
 .group         0x0000000000000000        0xc ./system/include/S6E2CCA/PDL/pdl.o
 .group         0x0000000000000000        0xc ./system/include/S6E2CCA/PDL/pdl.o
 .text          0x0000000000000000        0x0 ./system/include/S6E2CCA/PDL/pdl.o
 .data          0x0000000000000000        0x0 ./system/include/S6E2CCA/PDL/pdl.o
 .bss           0x0000000000000000        0x0 ./system/include/S6E2CCA/PDL/pdl.o
 .text.pdl_memclr
                0x0000000000000000       0x2c ./system/include/S6E2CCA/PDL/pdl.o
 .text.PDL_WAIT_LOOP_HOOK
                0x0000000000000000        0xe ./system/include/S6E2CCA/PDL/pdl.o
 .debug_info    0x0000000000000000      0x113 ./system/include/S6E2CCA/PDL/pdl.o
 .debug_abbrev  0x0000000000000000       0x9c ./system/include/S6E2CCA/PDL/pdl.o
 .debug_aranges
                0x0000000000000000       0x28 ./system/include/S6E2CCA/PDL/pdl.o
 .debug_ranges  0x0000000000000000       0x18 ./system/include/S6E2CCA/PDL/pdl.o
 .debug_macro   0x0000000000000000       0xb4 ./system/include/S6E2CCA/PDL/pdl.o
 .debug_macro   0x0000000000000000      0xa5a ./system/include/S6E2CCA/PDL/pdl.o
 .debug_macro   0x0000000000000000      0x877 ./system/include/S6E2CCA/PDL/pdl.o
 .debug_macro   0x0000000000000000      0x34e ./system/include/S6E2CCA/PDL/pdl.o
 .debug_macro   0x0000000000000000       0x35 ./system/include/S6E2CCA/PDL/pdl.o
 .debug_macro   0x0000000000000000       0x50 ./system/include/S6E2CCA/PDL/pdl.o
 .debug_macro   0x0000000000000000      0xe66 ./system/include/S6E2CCA/PDL/pdl.o
 .debug_macro   0x0000000000000000    0x34e84 ./system/include/S6E2CCA/PDL/pdl.o
 .debug_macro   0x0000000000000000      0x118 ./system/include/S6E2CCA/PDL/pdl.o
 .debug_macro   0x0000000000000000     0x394c ./system/include/S6E2CCA/PDL/pdl.o
 .debug_macro   0x0000000000000000      0x174 ./system/include/S6E2CCA/PDL/pdl.o
 .debug_macro   0x0000000000000000       0x22 ./system/include/S6E2CCA/PDL/pdl.o
 .debug_macro   0x0000000000000000      0x15c ./system/include/S6E2CCA/PDL/pdl.o
 .debug_line    0x0000000000000000      0x222 ./system/include/S6E2CCA/PDL/pdl.o
 .debug_str     0x0000000000000000   0x1ae02e ./system/include/S6E2CCA/PDL/pdl.o
 .comment       0x0000000000000000       0x72 ./system/include/S6E2CCA/PDL/pdl.o
 .debug_frame   0x0000000000000000       0x58 ./system/include/S6E2CCA/PDL/pdl.o
 .group         0x0000000000000000        0xc ./system/include/S6E2CCA/PDL/system_s6e2cc.o
 .group         0x0000000000000000        0xc ./system/include/S6E2CCA/PDL/system_s6e2cc.o
 .group         0x0000000000000000        0xc ./system/include/S6E2CCA/PDL/system_s6e2cc.o
 .group         0x0000000000000000        0xc ./system/include/S6E2CCA/PDL/system_s6e2cc.o
 .group         0x0000000000000000        0xc ./system/include/S6E2CCA/PDL/system_s6e2cc.o
 .group         0x0000000000000000        0xc ./system/include/S6E2CCA/PDL/system_s6e2cc.o
 .group         0x0000000000000000        0xc ./system/include/S6E2CCA/PDL/system_s6e2cc.o
 .group         0x0000000000000000        0xc ./system/include/S6E2CCA/PDL/system_s6e2cc.o
 .group         0x0000000000000000        0xc ./system/include/S6E2CCA/PDL/system_s6e2cc.o
 .text          0x0000000000000000        0x0 ./system/include/S6E2CCA/PDL/system_s6e2cc.o
 .data          0x0000000000000000        0x0 ./system/include/S6E2CCA/PDL/system_s6e2cc.o
 .bss           0x0000000000000000        0x0 ./system/include/S6E2CCA/PDL/system_s6e2cc.o
 .data.SystemCoreClock
                0x0000000000000000        0x4 ./system/include/S6E2CCA/PDL/system_s6e2cc.o
 .text.SystemCoreClockUpdate
                0x0000000000000000      0x124 ./system/include/S6E2CCA/PDL/system_s6e2cc.o
 .debug_macro   0x0000000000000000      0xa5a ./system/include/S6E2CCA/PDL/system_s6e2cc.o
 .debug_macro   0x0000000000000000      0x877 ./system/include/S6E2CCA/PDL/system_s6e2cc.o
 .debug_macro   0x0000000000000000      0x34e ./system/include/S6E2CCA/PDL/system_s6e2cc.o
 .debug_macro   0x0000000000000000       0x35 ./system/include/S6E2CCA/PDL/system_s6e2cc.o
 .debug_macro   0x0000000000000000       0x50 ./system/include/S6E2CCA/PDL/system_s6e2cc.o
 .debug_macro   0x0000000000000000      0xe66 ./system/include/S6E2CCA/PDL/system_s6e2cc.o
 .debug_macro   0x0000000000000000    0x34e84 ./system/include/S6E2CCA/PDL/system_s6e2cc.o
 .debug_macro   0x0000000000000000      0x118 ./system/include/S6E2CCA/PDL/system_s6e2cc.o
 .debug_macro   0x0000000000000000     0x394c ./system/include/S6E2CCA/PDL/system_s6e2cc.o
 .group         0x0000000000000000        0xc ./system/include/S6E2CCA/PDL/wm8731.o
 .group         0x0000000000000000        0xc ./system/include/S6E2CCA/PDL/wm8731.o
 .group         0x0000000000000000        0xc ./system/include/S6E2CCA/PDL/wm8731.o
 .group         0x0000000000000000        0xc ./system/include/S6E2CCA/PDL/wm8731.o
 .group         0x0000000000000000        0xc ./system/include/S6E2CCA/PDL/wm8731.o
 .group         0x0000000000000000        0xc ./system/include/S6E2CCA/PDL/wm8731.o
 .group         0x0000000000000000        0xc ./system/include/S6E2CCA/PDL/wm8731.o
 .group         0x0000000000000000        0xc ./system/include/S6E2CCA/PDL/wm8731.o
 .group         0x0000000000000000        0xc ./system/include/S6E2CCA/PDL/wm8731.o
 .group         0x0000000000000000        0xc ./system/include/S6E2CCA/PDL/wm8731.o
 .group         0x0000000000000000        0xc ./system/include/S6E2CCA/PDL/wm8731.o
 .group         0x0000000000000000        0xc ./system/include/S6E2CCA/PDL/wm8731.o
 .group         0x0000000000000000        0xc ./system/include/S6E2CCA/PDL/wm8731.o
 .group         0x0000000000000000        0xc ./system/include/S6E2CCA/PDL/wm8731.o
 .group         0x0000000000000000        0xc ./system/include/S6E2CCA/PDL/wm8731.o
 .group         0x0000000000000000        0xc ./system/include/S6E2CCA/PDL/wm8731.o
 .group         0x0000000000000000        0xc ./system/include/S6E2CCA/PDL/wm8731.o
 .group         0x0000000000000000        0xc ./system/include/S6E2CCA/PDL/wm8731.o
 .group         0x0000000000000000        0xc ./system/include/S6E2CCA/PDL/wm8731.o
 .group         0x0000000000000000        0xc ./system/include/S6E2CCA/PDL/wm8731.o
 .group         0x0000000000000000        0xc ./system/include/S6E2CCA/PDL/wm8731.o
 .group         0x0000000000000000        0xc ./system/include/S6E2CCA/PDL/wm8731.o
 .group         0x0000000000000000        0xc ./system/include/S6E2CCA/PDL/wm8731.o
 .group         0x0000000000000000        0xc ./system/include/S6E2CCA/PDL/wm8731.o
 .group         0x0000000000000000        0xc ./system/include/S6E2CCA/PDL/wm8731.o
 .group         0x0000000000000000        0xc ./system/include/S6E2CCA/PDL/wm8731.o
 .group         0x0000000000000000        0xc ./system/include/S6E2CCA/PDL/wm8731.o
 .group         0x0000000000000000        0xc ./system/include/S6E2CCA/PDL/wm8731.o
 .group         0x0000000000000000        0xc ./system/include/S6E2CCA/PDL/wm8731.o
 .group         0x0000000000000000        0xc ./system/include/S6E2CCA/PDL/wm8731.o
 .text          0x0000000000000000        0x0 ./system/include/S6E2CCA/PDL/wm8731.o
 .data          0x0000000000000000        0x0 ./system/include/S6E2CCA/PDL/wm8731.o
 .bss           0x0000000000000000        0x0 ./system/include/S6E2CCA/PDL/wm8731.o
 .text.I2cCheckErrorStatus
                0x0000000000000000       0x3c ./system/include/S6E2CCA/PDL/wm8731.o
 .text.I2cStart
                0x0000000000000000       0x80 ./system/include/S6E2CCA/PDL/wm8731.o
 .text.I2cSendData
                0x0000000000000000       0xa0 ./system/include/S6E2CCA/PDL/wm8731.o
 .text.I2cStop  0x0000000000000000       0x68 ./system/include/S6E2CCA/PDL/wm8731.o
 .text.Wm8731_SendCmd
                0x0000000000000000       0x50 ./system/include/S6E2CCA/PDL/wm8731.o
 .text.Wm8731_Init
                0x0000000000000000      0x12c ./system/include/S6E2CCA/PDL/wm8731.o
 .text.Wm8731_SetHpVolume
                0x0000000000000000       0x74 ./system/include/S6E2CCA/PDL/wm8731.o
 .debug_info    0x0000000000000000     0x2f19 ./system/include/S6E2CCA/PDL/wm8731.o
 .debug_abbrev  0x0000000000000000      0x302 ./system/include/S6E2CCA/PDL/wm8731.o
 .debug_aranges
                0x0000000000000000       0x50 ./system/include/S6E2CCA/PDL/wm8731.o
 .debug_ranges  0x0000000000000000       0x40 ./system/include/S6E2CCA/PDL/wm8731.o
 .debug_macro   0x0000000000000000      0x1b8 ./system/include/S6E2CCA/PDL/wm8731.o
 .debug_macro   0x0000000000000000      0xa5a ./system/include/S6E2CCA/PDL/wm8731.o
 .debug_macro   0x0000000000000000      0x877 ./system/include/S6E2CCA/PDL/wm8731.o
 .debug_macro   0x0000000000000000      0x34e ./system/include/S6E2CCA/PDL/wm8731.o
 .debug_macro   0x0000000000000000       0x35 ./system/include/S6E2CCA/PDL/wm8731.o
 .debug_macro   0x0000000000000000       0x50 ./system/include/S6E2CCA/PDL/wm8731.o
 .debug_macro   0x0000000000000000      0xe66 ./system/include/S6E2CCA/PDL/wm8731.o
 .debug_macro   0x0000000000000000    0x34e84 ./system/include/S6E2CCA/PDL/wm8731.o
 .debug_macro   0x0000000000000000      0x118 ./system/include/S6E2CCA/PDL/wm8731.o
 .debug_macro   0x0000000000000000     0x394c ./system/include/S6E2CCA/PDL/wm8731.o
 .debug_macro   0x0000000000000000      0x174 ./system/include/S6E2CCA/PDL/wm8731.o
 .debug_macro   0x0000000000000000       0x22 ./system/include/S6E2CCA/PDL/wm8731.o
 .debug_macro   0x0000000000000000      0x15c ./system/include/S6E2CCA/PDL/wm8731.o
 .debug_macro   0x0000000000000000     0x114a ./system/include/S6E2CCA/PDL/wm8731.o
 .debug_macro   0x0000000000000000      0x16f ./system/include/S6E2CCA/PDL/wm8731.o
 .debug_macro   0x0000000000000000       0x4c ./system/include/S6E2CCA/PDL/wm8731.o
 .debug_macro   0x0000000000000000       0x22 ./system/include/S6E2CCA/PDL/wm8731.o
 .debug_macro   0x0000000000000000       0x5e ./system/include/S6E2CCA/PDL/wm8731.o
 .debug_macro   0x0000000000000000       0x18 ./system/include/S6E2CCA/PDL/wm8731.o
 .debug_macro   0x0000000000000000       0x94 ./system/include/S6E2CCA/PDL/wm8731.o
 .debug_macro   0x0000000000000000       0x35 ./system/include/S6E2CCA/PDL/wm8731.o
 .debug_macro   0x0000000000000000       0x34 ./system/include/S6E2CCA/PDL/wm8731.o
 .debug_macro   0x0000000000000000       0x57 ./system/include/S6E2CCA/PDL/wm8731.o
 .debug_macro   0x0000000000000000       0x58 ./system/include/S6E2CCA/PDL/wm8731.o
 .debug_macro   0x0000000000000000       0x1f ./system/include/S6E2CCA/PDL/wm8731.o
 .debug_macro   0x0000000000000000       0x43 ./system/include/S6E2CCA/PDL/wm8731.o
 .debug_macro   0x0000000000000000       0x20 ./system/include/S6E2CCA/PDL/wm8731.o
 .debug_macro   0x0000000000000000      0x18e ./system/include/S6E2CCA/PDL/wm8731.o
 .debug_macro   0x0000000000000000      0x330 ./system/include/S6E2CCA/PDL/wm8731.o
 .debug_macro   0x0000000000000000       0x10 ./system/include/S6E2CCA/PDL/wm8731.o
 .debug_macro   0x0000000000000000       0x35 ./system/include/S6E2CCA/PDL/wm8731.o
 .debug_line    0x0000000000000000      0x51f ./system/include/S6E2CCA/PDL/wm8731.o
 .debug_str     0x0000000000000000   0x1b840a ./system/include/S6E2CCA/PDL/wm8731.o
 .comment       0x0000000000000000       0x72 ./system/include/S6E2CCA/PDL/wm8731.o
 .debug_frame   0x0000000000000000       0xfc ./system/include/S6E2CCA/PDL/wm8731.o
 COMMON         0x0000000000000000        0x8 ./system/include/S6E2CCA/PDL/wm8731.o
 .group         0x0000000000000000        0xc ./src/Examples/Semihosting.o
 .group         0x0000000000000000        0xc ./src/Examples/Semihosting.o
 .group         0x0000000000000000        0xc ./src/Examples/Semihosting.o
 .group         0x0000000000000000        0xc ./src/Examples/Semihosting.o
 .group         0x0000000000000000        0xc ./src/Examples/Semihosting.o
 .group         0x0000000000000000        0xc ./src/Examples/Semihosting.o
 .group         0x0000000000000000        0xc ./src/Examples/Semihosting.o
 .group         0x0000000000000000        0xc ./src/Examples/Semihosting.o
 .group         0x0000000000000000        0xc ./src/Examples/Semihosting.o
 .group         0x0000000000000000        0xc ./src/Examples/Semihosting.o
 .group         0x0000000000000000        0xc ./src/Examples/Semihosting.o
 .group         0x0000000000000000        0xc ./src/Examples/Semihosting.o
 .group         0x0000000000000000        0xc ./src/Examples/Semihosting.o
 .group         0x0000000000000000        0xc ./src/Examples/Semihosting.o
 .group         0x0000000000000000        0xc ./src/Examples/Semihosting.o
 .group         0x0000000000000000        0xc ./src/Examples/Semihosting.o
 .group         0x0000000000000000        0xc ./src/Examples/Semihosting.o
 .group         0x0000000000000000        0xc ./src/Examples/Semihosting.o
 .group         0x0000000000000000        0xc ./src/Examples/Semihosting.o
 .group         0x0000000000000000        0xc ./src/Examples/Semihosting.o
 .group         0x0000000000000000        0xc ./src/Examples/Semihosting.o
 .group         0x0000000000000000        0xc ./src/Examples/Semihosting.o
 .group         0x0000000000000000        0xc ./src/Examples/Semihosting.o
 .group         0x0000000000000000        0xc ./src/Examples/Semihosting.o
 .group         0x0000000000000000        0xc ./src/Examples/Semihosting.o
 .group         0x0000000000000000        0xc ./src/Examples/Semihosting.o
 .group         0x0000000000000000        0xc ./src/Examples/Semihosting.o
 .group         0x0000000000000000        0xc ./src/Examples/Semihosting.o
 .group         0x0000000000000000        0xc ./src/Examples/Semihosting.o
 .group         0x0000000000000000        0xc ./src/Examples/Semihosting.o
 .text          0x0000000000000000        0x0 ./src/Examples/Semihosting.o
 .data          0x0000000000000000        0x0 ./src/Examples/Semihosting.o
 .bss           0x0000000000000000        0x0 ./src/Examples/Semihosting.o
 .debug_macro   0x0000000000000000      0xa5a ./src/Examples/Semihosting.o
 .debug_macro   0x0000000000000000       0x22 ./src/Examples/Semihosting.o
 .debug_macro   0x0000000000000000       0x5e ./src/Examples/Semihosting.o
 .debug_macro   0x0000000000000000       0x18 ./src/Examples/Semihosting.o
 .debug_macro   0x0000000000000000       0x94 ./src/Examples/Semihosting.o
 .debug_macro   0x0000000000000000       0x35 ./src/Examples/Semihosting.o
 .debug_macro   0x0000000000000000       0x34 ./src/Examples/Semihosting.o
 .debug_macro   0x0000000000000000       0x16 ./src/Examples/Semihosting.o
 .debug_macro   0x0000000000000000       0x57 ./src/Examples/Semihosting.o
 .debug_macro   0x0000000000000000       0x97 ./src/Examples/Semihosting.o
 .debug_macro   0x0000000000000000      0x330 ./src/Examples/Semihosting.o
 .debug_macro   0x0000000000000000       0xfd ./src/Examples/Semihosting.o
 .debug_macro   0x0000000000000000       0x10 ./src/Examples/Semihosting.o
 .debug_macro   0x0000000000000000       0x58 ./src/Examples/Semihosting.o
 .debug_macro   0x0000000000000000       0x1f ./src/Examples/Semihosting.o
 .debug_macro   0x0000000000000000       0x43 ./src/Examples/Semihosting.o
 .debug_macro   0x0000000000000000       0x20 ./src/Examples/Semihosting.o
 .debug_macro   0x0000000000000000      0x18e ./src/Examples/Semihosting.o
 .debug_macro   0x0000000000000000       0x10 ./src/Examples/Semihosting.o
 .debug_macro   0x0000000000000000       0x6a ./src/Examples/Semihosting.o
 .debug_macro   0x0000000000000000       0x1c ./src/Examples/Semihosting.o
 .debug_macro   0x0000000000000000       0x52 ./src/Examples/Semihosting.o
 .debug_macro   0x0000000000000000       0x40 ./src/Examples/Semihosting.o
 .debug_macro   0x0000000000000000       0x10 ./src/Examples/Semihosting.o
 .debug_macro   0x0000000000000000       0x40 ./src/Examples/Semihosting.o
 .debug_macro   0x0000000000000000       0xd7 ./src/Examples/Semihosting.o
 .debug_macro   0x0000000000000000       0x1c ./src/Examples/Semihosting.o
 .debug_macro   0x0000000000000000       0x3d ./src/Examples/Semihosting.o
 .debug_macro   0x0000000000000000       0x16 ./src/Examples/Semihosting.o
 .debug_macro   0x0000000000000000      0x16f ./src/Examples/Semihosting.o
 .data          0x0000000000000000        0x0 c:/users/erth0001/user/gnuarmeclipse_photon/eclipse/gnu mcu eclipse/arm embedded gcc/bin/../lib/gcc/arm-none-eabi/7.3.1/thumb/v7e-m/fpv4-sp/hard\libgcc.a(_arm_truncdfsf2.o)
 .bss           0x0000000000000000        0x0 c:/users/erth0001/user/gnuarmeclipse_photon/eclipse/gnu mcu eclipse/arm embedded gcc/bin/../lib/gcc/arm-none-eabi/7.3.1/thumb/v7e-m/fpv4-sp/hard\libgcc.a(_arm_truncdfsf2.o)
 .text          0x0000000000000000        0x0 c:/users/erth0001/user/gnuarmeclipse_photon/eclipse/gnu mcu eclipse/arm embedded gcc/bin/../lib/gcc/arm-none-eabi/7.3.1/../../../../arm-none-eabi/lib/thumb/v7e-m/fpv4-sp/hard\libg_nano.a(lib_a-atof.o)
 .data          0x0000000000000000        0x0 c:/users/erth0001/user/gnuarmeclipse_photon/eclipse/gnu mcu eclipse/arm embedded gcc/bin/../lib/gcc/arm-none-eabi/7.3.1/../../../../arm-none-eabi/lib/thumb/v7e-m/fpv4-sp/hard\libg_nano.a(lib_a-atof.o)
 .bss           0x0000000000000000        0x0 c:/users/erth0001/user/gnuarmeclipse_photon/eclipse/gnu mcu eclipse/arm embedded gcc/bin/../lib/gcc/arm-none-eabi/7.3.1/../../../../arm-none-eabi/lib/thumb/v7e-m/fpv4-sp/hard\libg_nano.a(lib_a-atof.o)
 .text.atof     0x0000000000000000        0x6 c:/users/erth0001/user/gnuarmeclipse_photon/eclipse/gnu mcu eclipse/arm embedded gcc/bin/../lib/gcc/arm-none-eabi/7.3.1/../../../../arm-none-eabi/lib/thumb/v7e-m/fpv4-sp/hard\libg_nano.a(lib_a-atof.o)
 .debug_frame   0x0000000000000000       0x20 c:/users/erth0001/user/gnuarmeclipse_photon/eclipse/gnu mcu eclipse/arm embedded gcc/bin/../lib/gcc/arm-none-eabi/7.3.1/../../../../arm-none-eabi/lib/thumb/v7e-m/fpv4-sp/hard\libg_nano.a(lib_a-atof.o)
 .text          0x0000000000000000        0x0 c:/users/erth0001/user/gnuarmeclipse_photon/eclipse/gnu mcu eclipse/arm embedded gcc/bin/../lib/gcc/arm-none-eabi/7.3.1/../../../../arm-none-eabi/lib/thumb/v7e-m/fpv4-sp/hard\libg_nano.a(lib_a-atoi.o)
 .data          0x0000000000000000        0x0 c:/users/erth0001/user/gnuarmeclipse_photon/eclipse/gnu mcu eclipse/arm embedded gcc/bin/../lib/gcc/arm-none-eabi/7.3.1/../../../../arm-none-eabi/lib/thumb/v7e-m/fpv4-sp/hard\libg_nano.a(lib_a-atoi.o)
 .bss           0x0000000000000000        0x0 c:/users/erth0001/user/gnuarmeclipse_photon/eclipse/gnu mcu eclipse/arm embedded gcc/bin/../lib/gcc/arm-none-eabi/7.3.1/../../../../arm-none-eabi/lib/thumb/v7e-m/fpv4-sp/hard\libg_nano.a(lib_a-atoi.o)
 .text.atoi     0x0000000000000000        0x8 c:/users/erth0001/user/gnuarmeclipse_photon/eclipse/gnu mcu eclipse/arm embedded gcc/bin/../lib/gcc/arm-none-eabi/7.3.1/../../../../arm-none-eabi/lib/thumb/v7e-m/fpv4-sp/hard\libg_nano.a(lib_a-atoi.o)
 .text._atoi_r  0x0000000000000000        0x8 c:/users/erth0001/user/gnuarmeclipse_photon/eclipse/gnu mcu eclipse/arm embedded gcc/bin/../lib/gcc/arm-none-eabi/7.3.1/../../../../arm-none-eabi/lib/thumb/v7e-m/fpv4-sp/hard\libg_nano.a(lib_a-atoi.o)
 .debug_frame   0x0000000000000000       0x30 c:/users/erth0001/user/gnuarmeclipse_photon/eclipse/gnu mcu eclipse/arm embedded gcc/bin/../lib/gcc/arm-none-eabi/7.3.1/../../../../arm-none-eabi/lib/thumb/v7e-m/fpv4-sp/hard\libg_nano.a(lib_a-atoi.o)
 .text          0x0000000000000000        0x0 c:/users/erth0001/user/gnuarmeclipse_photon/eclipse/gnu mcu eclipse/arm embedded gcc/bin/../lib/gcc/arm-none-eabi/7.3.1/../../../../arm-none-eabi/lib/thumb/v7e-m/fpv4-sp/hard\libg_nano.a(lib_a-memset.o)
 .data          0x0000000000000000        0x0 c:/users/erth0001/user/gnuarmeclipse_photon/eclipse/gnu mcu eclipse/arm embedded gcc/bin/../lib/gcc/arm-none-eabi/7.3.1/../../../../arm-none-eabi/lib/thumb/v7e-m/fpv4-sp/hard\libg_nano.a(lib_a-memset.o)
 .bss           0x0000000000000000        0x0 c:/users/erth0001/user/gnuarmeclipse_photon/eclipse/gnu mcu eclipse/arm embedded gcc/bin/../lib/gcc/arm-none-eabi/7.3.1/../../../../arm-none-eabi/lib/thumb/v7e-m/fpv4-sp/hard\libg_nano.a(lib_a-memset.o)
 .text          0x0000000000000000        0x0 c:/users/erth0001/user/gnuarmeclipse_photon/eclipse/gnu mcu eclipse/arm embedded gcc/bin/../lib/gcc/arm-none-eabi/7.3.1/../../../../arm-none-eabi/lib/thumb/v7e-m/fpv4-sp/hard\libg_nano.a(lib_a-nano-vfprintf_float.o)
 .data          0x0000000000000000        0x0 c:/users/erth0001/user/gnuarmeclipse_photon/eclipse/gnu mcu eclipse/arm embedded gcc/bin/../lib/gcc/arm-none-eabi/7.3.1/../../../../arm-none-eabi/lib/thumb/v7e-m/fpv4-sp/hard\libg_nano.a(lib_a-nano-vfprintf_float.o)
 .bss           0x0000000000000000        0x0 c:/users/erth0001/user/gnuarmeclipse_photon/eclipse/gnu mcu eclipse/arm embedded gcc/bin/../lib/gcc/arm-none-eabi/7.3.1/../../../../arm-none-eabi/lib/thumb/v7e-m/fpv4-sp/hard\libg_nano.a(lib_a-nano-vfprintf_float.o)
 .text          0x0000000000000000        0x0 c:/users/erth0001/user/gnuarmeclipse_photon/eclipse/gnu mcu eclipse/arm embedded gcc/bin/../lib/gcc/arm-none-eabi/7.3.1/../../../../arm-none-eabi/lib/thumb/v7e-m/fpv4-sp/hard\libg_nano.a(lib_a-nano-vfprintf_i.o)
 .data          0x0000000000000000        0x0 c:/users/erth0001/user/gnuarmeclipse_photon/eclipse/gnu mcu eclipse/arm embedded gcc/bin/../lib/gcc/arm-none-eabi/7.3.1/../../../../arm-none-eabi/lib/thumb/v7e-m/fpv4-sp/hard\libg_nano.a(lib_a-nano-vfprintf_i.o)
 .bss           0x0000000000000000        0x0 c:/users/erth0001/user/gnuarmeclipse_photon/eclipse/gnu mcu eclipse/arm embedded gcc/bin/../lib/gcc/arm-none-eabi/7.3.1/../../../../arm-none-eabi/lib/thumb/v7e-m/fpv4-sp/hard\libg_nano.a(lib_a-nano-vfprintf_i.o)
 .text          0x0000000000000000        0x0 c:/users/erth0001/user/gnuarmeclipse_photon/eclipse/gnu mcu eclipse/arm embedded gcc/bin/../lib/gcc/arm-none-eabi/7.3.1/../../../../arm-none-eabi/lib/thumb/v7e-m/fpv4-sp/hard\libg_nano.a(lib_a-nano-vfscanf_float.o)
 .data          0x0000000000000000        0x0 c:/users/erth0001/user/gnuarmeclipse_photon/eclipse/gnu mcu eclipse/arm embedded gcc/bin/../lib/gcc/arm-none-eabi/7.3.1/../../../../arm-none-eabi/lib/thumb/v7e-m/fpv4-sp/hard\libg_nano.a(lib_a-nano-vfscanf_float.o)
 .bss           0x0000000000000000        0x0 c:/users/erth0001/user/gnuarmeclipse_photon/eclipse/gnu mcu eclipse/arm embedded gcc/bin/../lib/gcc/arm-none-eabi/7.3.1/../../../../arm-none-eabi/lib/thumb/v7e-m/fpv4-sp/hard\libg_nano.a(lib_a-nano-vfscanf_float.o)
 .text          0x0000000000000000        0x0 c:/users/erth0001/user/gnuarmeclipse_photon/eclipse/gnu mcu eclipse/arm embedded gcc/bin/../lib/gcc/arm-none-eabi/7.3.1/../../../../arm-none-eabi/lib/thumb/v7e-m/fpv4-sp/hard\libg_nano.a(lib_a-printf.o)
 .data          0x0000000000000000        0x0 c:/users/erth0001/user/gnuarmeclipse_photon/eclipse/gnu mcu eclipse/arm embedded gcc/bin/../lib/gcc/arm-none-eabi/7.3.1/../../../../arm-none-eabi/lib/thumb/v7e-m/fpv4-sp/hard\libg_nano.a(lib_a-printf.o)
 .bss           0x0000000000000000        0x0 c:/users/erth0001/user/gnuarmeclipse_photon/eclipse/gnu mcu eclipse/arm embedded gcc/bin/../lib/gcc/arm-none-eabi/7.3.1/../../../../arm-none-eabi/lib/thumb/v7e-m/fpv4-sp/hard\libg_nano.a(lib_a-printf.o)
 .text._printf_r
                0x0000000000000000       0x28 c:/users/erth0001/user/gnuarmeclipse_photon/eclipse/gnu mcu eclipse/arm embedded gcc/bin/../lib/gcc/arm-none-eabi/7.3.1/../../../../arm-none-eabi/lib/thumb/v7e-m/fpv4-sp/hard\libg_nano.a(lib_a-printf.o)
 .text          0x0000000000000000        0x0 c:/users/erth0001/user/gnuarmeclipse_photon/eclipse/gnu mcu eclipse/arm embedded gcc/bin/../lib/gcc/arm-none-eabi/7.3.1/../../../../arm-none-eabi/lib/thumb/v7e-m/fpv4-sp/hard\libg_nano.a(lib_a-sf_nan.o)
 .data          0x0000000000000000        0x0 c:/users/erth0001/user/gnuarmeclipse_photon/eclipse/gnu mcu eclipse/arm embedded gcc/bin/../lib/gcc/arm-none-eabi/7.3.1/../../../../arm-none-eabi/lib/thumb/v7e-m/fpv4-sp/hard\libg_nano.a(lib_a-sf_nan.o)
 .bss           0x0000000000000000        0x0 c:/users/erth0001/user/gnuarmeclipse_photon/eclipse/gnu mcu eclipse/arm embedded gcc/bin/../lib/gcc/arm-none-eabi/7.3.1/../../../../arm-none-eabi/lib/thumb/v7e-m/fpv4-sp/hard\libg_nano.a(lib_a-sf_nan.o)
 .text          0x0000000000000000        0x0 c:/users/erth0001/user/gnuarmeclipse_photon/eclipse/gnu mcu eclipse/arm embedded gcc/bin/../lib/gcc/arm-none-eabi/7.3.1/../../../../arm-none-eabi/lib/thumb/v7e-m/fpv4-sp/hard\libg_nano.a(lib_a-sprintf.o)
 .data          0x0000000000000000        0x0 c:/users/erth0001/user/gnuarmeclipse_photon/eclipse/gnu mcu eclipse/arm embedded gcc/bin/../lib/gcc/arm-none-eabi/7.3.1/../../../../arm-none-eabi/lib/thumb/v7e-m/fpv4-sp/hard\libg_nano.a(lib_a-sprintf.o)
 .bss           0x0000000000000000        0x0 c:/users/erth0001/user/gnuarmeclipse_photon/eclipse/gnu mcu eclipse/arm embedded gcc/bin/../lib/gcc/arm-none-eabi/7.3.1/../../../../arm-none-eabi/lib/thumb/v7e-m/fpv4-sp/hard\libg_nano.a(lib_a-sprintf.o)
 .text._sprintf_r
                0x0000000000000000       0x38 c:/users/erth0001/user/gnuarmeclipse_photon/eclipse/gnu mcu eclipse/arm embedded gcc/bin/../lib/gcc/arm-none-eabi/7.3.1/../../../../arm-none-eabi/lib/thumb/v7e-m/fpv4-sp/hard\libg_nano.a(lib_a-sprintf.o)
 .data          0x0000000000000000        0x0 c:/users/erth0001/user/gnuarmeclipse_photon/eclipse/gnu mcu eclipse/arm embedded gcc/bin/../lib/gcc/arm-none-eabi/7.3.1/../../../../arm-none-eabi/lib/thumb/v7e-m/fpv4-sp/hard\libg_nano.a(lib_a-strlen.o)
 .bss           0x0000000000000000        0x0 c:/users/erth0001/user/gnuarmeclipse_photon/eclipse/gnu mcu eclipse/arm embedded gcc/bin/../lib/gcc/arm-none-eabi/7.3.1/../../../../arm-none-eabi/lib/thumb/v7e-m/fpv4-sp/hard\libg_nano.a(lib_a-strlen.o)
 .text          0x0000000000000000        0x0 c:/users/erth0001/user/gnuarmeclipse_photon/eclipse/gnu mcu eclipse/arm embedded gcc/bin/../lib/gcc/arm-none-eabi/7.3.1/../../../../arm-none-eabi/lib/thumb/v7e-m/fpv4-sp/hard\libg_nano.a(lib_a-strtod.o)
 .data          0x0000000000000000        0x0 c:/users/erth0001/user/gnuarmeclipse_photon/eclipse/gnu mcu eclipse/arm embedded gcc/bin/../lib/gcc/arm-none-eabi/7.3.1/../../../../arm-none-eabi/lib/thumb/v7e-m/fpv4-sp/hard\libg_nano.a(lib_a-strtod.o)
 .bss           0x0000000000000000        0x0 c:/users/erth0001/user/gnuarmeclipse_photon/eclipse/gnu mcu eclipse/arm embedded gcc/bin/../lib/gcc/arm-none-eabi/7.3.1/../../../../arm-none-eabi/lib/thumb/v7e-m/fpv4-sp/hard\libg_nano.a(lib_a-strtod.o)
 .text.strtod_l
                0x0000000000000000       0x14 c:/users/erth0001/user/gnuarmeclipse_photon/eclipse/gnu mcu eclipse/arm embedded gcc/bin/../lib/gcc/arm-none-eabi/7.3.1/../../../../arm-none-eabi/lib/thumb/v7e-m/fpv4-sp/hard\libg_nano.a(lib_a-strtod.o)
 .text.strtod   0x0000000000000000       0x28 c:/users/erth0001/user/gnuarmeclipse_photon/eclipse/gnu mcu eclipse/arm embedded gcc/bin/../lib/gcc/arm-none-eabi/7.3.1/../../../../arm-none-eabi/lib/thumb/v7e-m/fpv4-sp/hard\libg_nano.a(lib_a-strtod.o)
 .text.strtof_l
                0x0000000000000000       0x9c c:/users/erth0001/user/gnuarmeclipse_photon/eclipse/gnu mcu eclipse/arm embedded gcc/bin/../lib/gcc/arm-none-eabi/7.3.1/../../../../arm-none-eabi/lib/thumb/v7e-m/fpv4-sp/hard\libg_nano.a(lib_a-strtod.o)
 .text.strtof   0x0000000000000000       0xa8 c:/users/erth0001/user/gnuarmeclipse_photon/eclipse/gnu mcu eclipse/arm embedded gcc/bin/../lib/gcc/arm-none-eabi/7.3.1/../../../../arm-none-eabi/lib/thumb/v7e-m/fpv4-sp/hard\libg_nano.a(lib_a-strtod.o)
 .text          0x0000000000000000        0x0 c:/users/erth0001/user/gnuarmeclipse_photon/eclipse/gnu mcu eclipse/arm embedded gcc/bin/../lib/gcc/arm-none-eabi/7.3.1/../../../../arm-none-eabi/lib/thumb/v7e-m/fpv4-sp/hard\libg_nano.a(lib_a-strtol.o)
 .data          0x0000000000000000        0x0 c:/users/erth0001/user/gnuarmeclipse_photon/eclipse/gnu mcu eclipse/arm embedded gcc/bin/../lib/gcc/arm-none-eabi/7.3.1/../../../../arm-none-eabi/lib/thumb/v7e-m/fpv4-sp/hard\libg_nano.a(lib_a-strtol.o)
 .bss           0x0000000000000000        0x0 c:/users/erth0001/user/gnuarmeclipse_photon/eclipse/gnu mcu eclipse/arm embedded gcc/bin/../lib/gcc/arm-none-eabi/7.3.1/../../../../arm-none-eabi/lib/thumb/v7e-m/fpv4-sp/hard\libg_nano.a(lib_a-strtol.o)
 .text.strtol_l
                0x0000000000000000       0x1c c:/users/erth0001/user/gnuarmeclipse_photon/eclipse/gnu mcu eclipse/arm embedded gcc/bin/../lib/gcc/arm-none-eabi/7.3.1/../../../../arm-none-eabi/lib/thumb/v7e-m/fpv4-sp/hard\libg_nano.a(lib_a-strtol.o)
 .text.strtol   0x0000000000000000       0x2c c:/users/erth0001/user/gnuarmeclipse_photon/eclipse/gnu mcu eclipse/arm embedded gcc/bin/../lib/gcc/arm-none-eabi/7.3.1/../../../../arm-none-eabi/lib/thumb/v7e-m/fpv4-sp/hard\libg_nano.a(lib_a-strtol.o)
 .text          0x0000000000000000        0x0 c:/users/erth0001/user/gnuarmeclipse_photon/eclipse/gnu mcu eclipse/arm embedded gcc/bin/../lib/gcc/arm-none-eabi/7.3.1/../../../../arm-none-eabi/lib/thumb/v7e-m/fpv4-sp/hard\libg_nano.a(lib_a-dtoa.o)
 .data          0x0000000000000000        0x0 c:/users/erth0001/user/gnuarmeclipse_photon/eclipse/gnu mcu eclipse/arm embedded gcc/bin/../lib/gcc/arm-none-eabi/7.3.1/../../../../arm-none-eabi/lib/thumb/v7e-m/fpv4-sp/hard\libg_nano.a(lib_a-dtoa.o)
 .bss           0x0000000000000000        0x0 c:/users/erth0001/user/gnuarmeclipse_photon/eclipse/gnu mcu eclipse/arm embedded gcc/bin/../lib/gcc/arm-none-eabi/7.3.1/../../../../arm-none-eabi/lib/thumb/v7e-m/fpv4-sp/hard\libg_nano.a(lib_a-dtoa.o)
 .text          0x0000000000000000        0x0 c:/users/erth0001/user/gnuarmeclipse_photon/eclipse/gnu mcu eclipse/arm embedded gcc/bin/../lib/gcc/arm-none-eabi/7.3.1/../../../../arm-none-eabi/lib/thumb/v7e-m/fpv4-sp/hard\libg_nano.a(lib_a-findfp.o)
 .data          0x0000000000000000        0x0 c:/users/erth0001/user/gnuarmeclipse_photon/eclipse/gnu mcu eclipse/arm embedded gcc/bin/../lib/gcc/arm-none-eabi/7.3.1/../../../../arm-none-eabi/lib/thumb/v7e-m/fpv4-sp/hard\libg_nano.a(lib_a-findfp.o)
 .bss           0x0000000000000000        0x0 c:/users/erth0001/user/gnuarmeclipse_photon/eclipse/gnu mcu eclipse/arm embedded gcc/bin/../lib/gcc/arm-none-eabi/7.3.1/../../../../arm-none-eabi/lib/thumb/v7e-m/fpv4-sp/hard\libg_nano.a(lib_a-findfp.o)
 .text.__fp_lock
                0x0000000000000000        0x4 c:/users/erth0001/user/gnuarmeclipse_photon/eclipse/gnu mcu eclipse/arm embedded gcc/bin/../lib/gcc/arm-none-eabi/7.3.1/../../../../arm-none-eabi/lib/thumb/v7e-m/fpv4-sp/hard\libg_nano.a(lib_a-findfp.o)
 .text.__fp_unlock
                0x0000000000000000        0x4 c:/users/erth0001/user/gnuarmeclipse_photon/eclipse/gnu mcu eclipse/arm embedded gcc/bin/../lib/gcc/arm-none-eabi/7.3.1/../../../../arm-none-eabi/lib/thumb/v7e-m/fpv4-sp/hard\libg_nano.a(lib_a-findfp.o)
 .text._cleanup
                0x0000000000000000        0xc c:/users/erth0001/user/gnuarmeclipse_photon/eclipse/gnu mcu eclipse/arm embedded gcc/bin/../lib/gcc/arm-none-eabi/7.3.1/../../../../arm-none-eabi/lib/thumb/v7e-m/fpv4-sp/hard\libg_nano.a(lib_a-findfp.o)
 .text.__sfp_lock_acquire
                0x0000000000000000        0x2 c:/users/erth0001/user/gnuarmeclipse_photon/eclipse/gnu mcu eclipse/arm embedded gcc/bin/../lib/gcc/arm-none-eabi/7.3.1/../../../../arm-none-eabi/lib/thumb/v7e-m/fpv4-sp/hard\libg_nano.a(lib_a-findfp.o)
 .text.__sfp_lock_release
                0x0000000000000000        0x2 c:/users/erth0001/user/gnuarmeclipse_photon/eclipse/gnu mcu eclipse/arm embedded gcc/bin/../lib/gcc/arm-none-eabi/7.3.1/../../../../arm-none-eabi/lib/thumb/v7e-m/fpv4-sp/hard\libg_nano.a(lib_a-findfp.o)
 .text.__sinit_lock_acquire
                0x0000000000000000        0x2 c:/users/erth0001/user/gnuarmeclipse_photon/eclipse/gnu mcu eclipse/arm embedded gcc/bin/../lib/gcc/arm-none-eabi/7.3.1/../../../../arm-none-eabi/lib/thumb/v7e-m/fpv4-sp/hard\libg_nano.a(lib_a-findfp.o)
 .text.__sinit_lock_release
                0x0000000000000000        0x2 c:/users/erth0001/user/gnuarmeclipse_photon/eclipse/gnu mcu eclipse/arm embedded gcc/bin/../lib/gcc/arm-none-eabi/7.3.1/../../../../arm-none-eabi/lib/thumb/v7e-m/fpv4-sp/hard\libg_nano.a(lib_a-findfp.o)
 .text.__fp_lock_all
                0x0000000000000000       0x14 c:/users/erth0001/user/gnuarmeclipse_photon/eclipse/gnu mcu eclipse/arm embedded gcc/bin/../lib/gcc/arm-none-eabi/7.3.1/../../../../arm-none-eabi/lib/thumb/v7e-m/fpv4-sp/hard\libg_nano.a(lib_a-findfp.o)
 .text.__fp_unlock_all
                0x0000000000000000       0x14 c:/users/erth0001/user/gnuarmeclipse_photon/eclipse/gnu mcu eclipse/arm embedded gcc/bin/../lib/gcc/arm-none-eabi/7.3.1/../../../../arm-none-eabi/lib/thumb/v7e-m/fpv4-sp/hard\libg_nano.a(lib_a-findfp.o)
 .text          0x0000000000000000        0x0 c:/users/erth0001/user/gnuarmeclipse_photon/eclipse/gnu mcu eclipse/arm embedded gcc/bin/../lib/gcc/arm-none-eabi/7.3.1/../../../../arm-none-eabi/lib/thumb/v7e-m/fpv4-sp/hard\libg_nano.a(lib_a-fwalk.o)
 .data          0x0000000000000000        0x0 c:/users/erth0001/user/gnuarmeclipse_photon/eclipse/gnu mcu eclipse/arm embedded gcc/bin/../lib/gcc/arm-none-eabi/7.3.1/../../../../arm-none-eabi/lib/thumb/v7e-m/fpv4-sp/hard\libg_nano.a(lib_a-fwalk.o)
 .bss           0x0000000000000000        0x0 c:/users/erth0001/user/gnuarmeclipse_photon/eclipse/gnu mcu eclipse/arm embedded gcc/bin/../lib/gcc/arm-none-eabi/7.3.1/../../../../arm-none-eabi/lib/thumb/v7e-m/fpv4-sp/hard\libg_nano.a(lib_a-fwalk.o)
 .text._fwalk   0x0000000000000000       0x38 c:/users/erth0001/user/gnuarmeclipse_photon/eclipse/gnu mcu eclipse/arm embedded gcc/bin/../lib/gcc/arm-none-eabi/7.3.1/../../../../arm-none-eabi/lib/thumb/v7e-m/fpv4-sp/hard\libg_nano.a(lib_a-fwalk.o)
 .text          0x0000000000000000        0x0 c:/users/erth0001/user/gnuarmeclipse_photon/eclipse/gnu mcu eclipse/arm embedded gcc/bin/../lib/gcc/arm-none-eabi/7.3.1/../../../../arm-none-eabi/lib/thumb/v7e-m/fpv4-sp/hard\libg_nano.a(lib_a-gdtoa-gethex.o)
 .data          0x0000000000000000        0x0 c:/users/erth0001/user/gnuarmeclipse_photon/eclipse/gnu mcu eclipse/arm embedded gcc/bin/../lib/gcc/arm-none-eabi/7.3.1/../../../../arm-none-eabi/lib/thumb/v7e-m/fpv4-sp/hard\libg_nano.a(lib_a-gdtoa-gethex.o)
 .bss           0x0000000000000000        0x0 c:/users/erth0001/user/gnuarmeclipse_photon/eclipse/gnu mcu eclipse/arm embedded gcc/bin/../lib/gcc/arm-none-eabi/7.3.1/../../../../arm-none-eabi/lib/thumb/v7e-m/fpv4-sp/hard\libg_nano.a(lib_a-gdtoa-gethex.o)
 .text          0x0000000000000000        0x0 c:/users/erth0001/user/gnuarmeclipse_photon/eclipse/gnu mcu eclipse/arm embedded gcc/bin/../lib/gcc/arm-none-eabi/7.3.1/../../../../arm-none-eabi/lib/thumb/v7e-m/fpv4-sp/hard\libg_nano.a(lib_a-gdtoa-hexnan.o)
 .data          0x0000000000000000        0x0 c:/users/erth0001/user/gnuarmeclipse_photon/eclipse/gnu mcu eclipse/arm embedded gcc/bin/../lib/gcc/arm-none-eabi/7.3.1/../../../../arm-none-eabi/lib/thumb/v7e-m/fpv4-sp/hard\libg_nano.a(lib_a-gdtoa-hexnan.o)
 .bss           0x0000000000000000        0x0 c:/users/erth0001/user/gnuarmeclipse_photon/eclipse/gnu mcu eclipse/arm embedded gcc/bin/../lib/gcc/arm-none-eabi/7.3.1/../../../../arm-none-eabi/lib/thumb/v7e-m/fpv4-sp/hard\libg_nano.a(lib_a-gdtoa-hexnan.o)
 .text          0x0000000000000000        0x0 c:/users/erth0001/user/gnuarmeclipse_photon/eclipse/gnu mcu eclipse/arm embedded gcc/bin/../lib/gcc/arm-none-eabi/7.3.1/../../../../arm-none-eabi/lib/thumb/v7e-m/fpv4-sp/hard\libg_nano.a(lib_a-impure.o)
 .data          0x0000000000000000        0x0 c:/users/erth0001/user/gnuarmeclipse_photon/eclipse/gnu mcu eclipse/arm embedded gcc/bin/../lib/gcc/arm-none-eabi/7.3.1/../../../../arm-none-eabi/lib/thumb/v7e-m/fpv4-sp/hard\libg_nano.a(lib_a-impure.o)
 .bss           0x0000000000000000        0x0 c:/users/erth0001/user/gnuarmeclipse_photon/eclipse/gnu mcu eclipse/arm embedded gcc/bin/../lib/gcc/arm-none-eabi/7.3.1/../../../../arm-none-eabi/lib/thumb/v7e-m/fpv4-sp/hard\libg_nano.a(lib_a-impure.o)
 .text          0x0000000000000000        0x0 c:/users/erth0001/user/gnuarmeclipse_photon/eclipse/gnu mcu eclipse/arm embedded gcc/bin/../lib/gcc/arm-none-eabi/7.3.1/../../../../arm-none-eabi/lib/thumb/v7e-m/fpv4-sp/hard\libg_nano.a(lib_a-locale.o)
 .data          0x0000000000000000        0x0 c:/users/erth0001/user/gnuarmeclipse_photon/eclipse/gnu mcu eclipse/arm embedded gcc/bin/../lib/gcc/arm-none-eabi/7.3.1/../../../../arm-none-eabi/lib/thumb/v7e-m/fpv4-sp/hard\libg_nano.a(lib_a-locale.o)
 .bss           0x0000000000000000        0x0 c:/users/erth0001/user/gnuarmeclipse_photon/eclipse/gnu mcu eclipse/arm embedded gcc/bin/../lib/gcc/arm-none-eabi/7.3.1/../../../../arm-none-eabi/lib/thumb/v7e-m/fpv4-sp/hard\libg_nano.a(lib_a-locale.o)
 .text._setlocale_r
                0x0000000000000000       0x38 c:/users/erth0001/user/gnuarmeclipse_photon/eclipse/gnu mcu eclipse/arm embedded gcc/bin/../lib/gcc/arm-none-eabi/7.3.1/../../../../arm-none-eabi/lib/thumb/v7e-m/fpv4-sp/hard\libg_nano.a(lib_a-locale.o)
 .text.__locale_mb_cur_max
                0x0000000000000000       0x1c c:/users/erth0001/user/gnuarmeclipse_photon/eclipse/gnu mcu eclipse/arm embedded gcc/bin/../lib/gcc/arm-none-eabi/7.3.1/../../../../arm-none-eabi/lib/thumb/v7e-m/fpv4-sp/hard\libg_nano.a(lib_a-locale.o)
 .text.__locale_ctype_ptr
                0x0000000000000000       0x1c c:/users/erth0001/user/gnuarmeclipse_photon/eclipse/gnu mcu eclipse/arm embedded gcc/bin/../lib/gcc/arm-none-eabi/7.3.1/../../../../arm-none-eabi/lib/thumb/v7e-m/fpv4-sp/hard\libg_nano.a(lib_a-locale.o)
 .text.setlocale
                0x0000000000000000       0x10 c:/users/erth0001/user/gnuarmeclipse_photon/eclipse/gnu mcu eclipse/arm embedded gcc/bin/../lib/gcc/arm-none-eabi/7.3.1/../../../../arm-none-eabi/lib/thumb/v7e-m/fpv4-sp/hard\libg_nano.a(lib_a-locale.o)
 .bss._PathLocale
                0x0000000000000000        0x4 c:/users/erth0001/user/gnuarmeclipse_photon/eclipse/gnu mcu eclipse/arm embedded gcc/bin/../lib/gcc/arm-none-eabi/7.3.1/../../../../arm-none-eabi/lib/thumb/v7e-m/fpv4-sp/hard\libg_nano.a(lib_a-locale.o)
 .text          0x0000000000000000        0x0 c:/users/erth0001/user/gnuarmeclipse_photon/eclipse/gnu mcu eclipse/arm embedded gcc/bin/../lib/gcc/arm-none-eabi/7.3.1/../../../../arm-none-eabi/lib/thumb/v7e-m/fpv4-sp/hard\libg_nano.a(lib_a-localeconv.o)
 .data          0x0000000000000000        0x0 c:/users/erth0001/user/gnuarmeclipse_photon/eclipse/gnu mcu eclipse/arm embedded gcc/bin/../lib/gcc/arm-none-eabi/7.3.1/../../../../arm-none-eabi/lib/thumb/v7e-m/fpv4-sp/hard\libg_nano.a(lib_a-localeconv.o)
 .bss           0x0000000000000000        0x0 c:/users/erth0001/user/gnuarmeclipse_photon/eclipse/gnu mcu eclipse/arm embedded gcc/bin/../lib/gcc/arm-none-eabi/7.3.1/../../../../arm-none-eabi/lib/thumb/v7e-m/fpv4-sp/hard\libg_nano.a(lib_a-localeconv.o)
 .text.localeconv
                0x0000000000000000       0x1c c:/users/erth0001/user/gnuarmeclipse_photon/eclipse/gnu mcu eclipse/arm embedded gcc/bin/../lib/gcc/arm-none-eabi/7.3.1/../../../../arm-none-eabi/lib/thumb/v7e-m/fpv4-sp/hard\libg_nano.a(lib_a-localeconv.o)
 .text          0x0000000000000000        0x0 c:/users/erth0001/user/gnuarmeclipse_photon/eclipse/gnu mcu eclipse/arm embedded gcc/bin/../lib/gcc/arm-none-eabi/7.3.1/../../../../arm-none-eabi/lib/thumb/v7e-m/fpv4-sp/hard\libg_nano.a(lib_a-malloc.o)
 .data          0x0000000000000000        0x0 c:/users/erth0001/user/gnuarmeclipse_photon/eclipse/gnu mcu eclipse/arm embedded gcc/bin/../lib/gcc/arm-none-eabi/7.3.1/../../../../arm-none-eabi/lib/thumb/v7e-m/fpv4-sp/hard\libg_nano.a(lib_a-malloc.o)
 .bss           0x0000000000000000        0x0 c:/users/erth0001/user/gnuarmeclipse_photon/eclipse/gnu mcu eclipse/arm embedded gcc/bin/../lib/gcc/arm-none-eabi/7.3.1/../../../../arm-none-eabi/lib/thumb/v7e-m/fpv4-sp/hard\libg_nano.a(lib_a-malloc.o)
 .text.free     0x0000000000000000       0x10 c:/users/erth0001/user/gnuarmeclipse_photon/eclipse/gnu mcu eclipse/arm embedded gcc/bin/../lib/gcc/arm-none-eabi/7.3.1/../../../../arm-none-eabi/lib/thumb/v7e-m/fpv4-sp/hard\libg_nano.a(lib_a-malloc.o)
 .text          0x0000000000000000        0x0 c:/users/erth0001/user/gnuarmeclipse_photon/eclipse/gnu mcu eclipse/arm embedded gcc/bin/../lib/gcc/arm-none-eabi/7.3.1/../../../../arm-none-eabi/lib/thumb/v7e-m/fpv4-sp/hard\libg_nano.a(lib_a-mbtowc_r.o)
 .data          0x0000000000000000        0x0 c:/users/erth0001/user/gnuarmeclipse_photon/eclipse/gnu mcu eclipse/arm embedded gcc/bin/../lib/gcc/arm-none-eabi/7.3.1/../../../../arm-none-eabi/lib/thumb/v7e-m/fpv4-sp/hard\libg_nano.a(lib_a-mbtowc_r.o)
 .bss           0x0000000000000000        0x0 c:/users/erth0001/user/gnuarmeclipse_photon/eclipse/gnu mcu eclipse/arm embedded gcc/bin/../lib/gcc/arm-none-eabi/7.3.1/../../../../arm-none-eabi/lib/thumb/v7e-m/fpv4-sp/hard\libg_nano.a(lib_a-mbtowc_r.o)
 .text._mbtowc_r
                0x0000000000000000       0x24 c:/users/erth0001/user/gnuarmeclipse_photon/eclipse/gnu mcu eclipse/arm embedded gcc/bin/../lib/gcc/arm-none-eabi/7.3.1/../../../../arm-none-eabi/lib/thumb/v7e-m/fpv4-sp/hard\libg_nano.a(lib_a-mbtowc_r.o)
 .data          0x0000000000000000        0x0 c:/users/erth0001/user/gnuarmeclipse_photon/eclipse/gnu mcu eclipse/arm embedded gcc/bin/../lib/gcc/arm-none-eabi/7.3.1/../../../../arm-none-eabi/lib/thumb/v7e-m/fpv4-sp/hard\libg_nano.a(lib_a-memchr.o)
 .bss           0x0000000000000000        0x0 c:/users/erth0001/user/gnuarmeclipse_photon/eclipse/gnu mcu eclipse/arm embedded gcc/bin/../lib/gcc/arm-none-eabi/7.3.1/../../../../arm-none-eabi/lib/thumb/v7e-m/fpv4-sp/hard\libg_nano.a(lib_a-memchr.o)
 .text          0x0000000000000000        0x0 c:/users/erth0001/user/gnuarmeclipse_photon/eclipse/gnu mcu eclipse/arm embedded gcc/bin/../lib/gcc/arm-none-eabi/7.3.1/../../../../arm-none-eabi/lib/thumb/v7e-m/fpv4-sp/hard\libg_nano.a(lib_a-memcpy-stub.o)
 .data          0x0000000000000000        0x0 c:/users/erth0001/user/gnuarmeclipse_photon/eclipse/gnu mcu eclipse/arm embedded gcc/bin/../lib/gcc/arm-none-eabi/7.3.1/../../../../arm-none-eabi/lib/thumb/v7e-m/fpv4-sp/hard\libg_nano.a(lib_a-memcpy-stub.o)
 .bss           0x0000000000000000        0x0 c:/users/erth0001/user/gnuarmeclipse_photon/eclipse/gnu mcu eclipse/arm embedded gcc/bin/../lib/gcc/arm-none-eabi/7.3.1/../../../../arm-none-eabi/lib/thumb/v7e-m/fpv4-sp/hard\libg_nano.a(lib_a-memcpy-stub.o)
 .text          0x0000000000000000        0x0 c:/users/erth0001/user/gnuarmeclipse_photon/eclipse/gnu mcu eclipse/arm embedded gcc/bin/../lib/gcc/arm-none-eabi/7.3.1/../../../../arm-none-eabi/lib/thumb/v7e-m/fpv4-sp/hard\libg_nano.a(lib_a-mprec.o)
 .data          0x0000000000000000        0x0 c:/users/erth0001/user/gnuarmeclipse_photon/eclipse/gnu mcu eclipse/arm embedded gcc/bin/../lib/gcc/arm-none-eabi/7.3.1/../../../../arm-none-eabi/lib/thumb/v7e-m/fpv4-sp/hard\libg_nano.a(lib_a-mprec.o)
 .bss           0x0000000000000000        0x0 c:/users/erth0001/user/gnuarmeclipse_photon/eclipse/gnu mcu eclipse/arm embedded gcc/bin/../lib/gcc/arm-none-eabi/7.3.1/../../../../arm-none-eabi/lib/thumb/v7e-m/fpv4-sp/hard\libg_nano.a(lib_a-mprec.o)
 .text._mprec_log10
                0x0000000000000000       0x3c c:/users/erth0001/user/gnuarmeclipse_photon/eclipse/gnu mcu eclipse/arm embedded gcc/bin/../lib/gcc/arm-none-eabi/7.3.1/../../../../arm-none-eabi/lib/thumb/v7e-m/fpv4-sp/hard\libg_nano.a(lib_a-mprec.o)
 .rodata.__mprec_tinytens
                0x0000000000000000       0x28 c:/users/erth0001/user/gnuarmeclipse_photon/eclipse/gnu mcu eclipse/arm embedded gcc/bin/../lib/gcc/arm-none-eabi/7.3.1/../../../../arm-none-eabi/lib/thumb/v7e-m/fpv4-sp/hard\libg_nano.a(lib_a-mprec.o)
 .text          0x0000000000000000        0x0 c:/users/erth0001/user/gnuarmeclipse_photon/eclipse/gnu mcu eclipse/arm embedded gcc/bin/../lib/gcc/arm-none-eabi/7.3.1/../../../../arm-none-eabi/lib/thumb/v7e-m/fpv4-sp/hard\libg_nano.a(lib_a-nano-callocr.o)
 .data          0x0000000000000000        0x0 c:/users/erth0001/user/gnuarmeclipse_photon/eclipse/gnu mcu eclipse/arm embedded gcc/bin/../lib/gcc/arm-none-eabi/7.3.1/../../../../arm-none-eabi/lib/thumb/v7e-m/fpv4-sp/hard\libg_nano.a(lib_a-nano-callocr.o)
 .bss           0x0000000000000000        0x0 c:/users/erth0001/user/gnuarmeclipse_photon/eclipse/gnu mcu eclipse/arm embedded gcc/bin/../lib/gcc/arm-none-eabi/7.3.1/../../../../arm-none-eabi/lib/thumb/v7e-m/fpv4-sp/hard\libg_nano.a(lib_a-nano-callocr.o)
 .text          0x0000000000000000        0x0 c:/users/erth0001/user/gnuarmeclipse_photon/eclipse/gnu mcu eclipse/arm embedded gcc/bin/../lib/gcc/arm-none-eabi/7.3.1/../../../../arm-none-eabi/lib/thumb/v7e-m/fpv4-sp/hard\libg_nano.a(lib_a-nano-freer.o)
 .data          0x0000000000000000        0x0 c:/users/erth0001/user/gnuarmeclipse_photon/eclipse/gnu mcu eclipse/arm embedded gcc/bin/../lib/gcc/arm-none-eabi/7.3.1/../../../../arm-none-eabi/lib/thumb/v7e-m/fpv4-sp/hard\libg_nano.a(lib_a-nano-freer.o)
 .bss           0x0000000000000000        0x0 c:/users/erth0001/user/gnuarmeclipse_photon/eclipse/gnu mcu eclipse/arm embedded gcc/bin/../lib/gcc/arm-none-eabi/7.3.1/../../../../arm-none-eabi/lib/thumb/v7e-m/fpv4-sp/hard\libg_nano.a(lib_a-nano-freer.o)
 .text          0x0000000000000000        0x0 c:/users/erth0001/user/gnuarmeclipse_photon/eclipse/gnu mcu eclipse/arm embedded gcc/bin/../lib/gcc/arm-none-eabi/7.3.1/../../../../arm-none-eabi/lib/thumb/v7e-m/fpv4-sp/hard\libg_nano.a(lib_a-nano-mallocr.o)
 .data          0x0000000000000000        0x0 c:/users/erth0001/user/gnuarmeclipse_photon/eclipse/gnu mcu eclipse/arm embedded gcc/bin/../lib/gcc/arm-none-eabi/7.3.1/../../../../arm-none-eabi/lib/thumb/v7e-m/fpv4-sp/hard\libg_nano.a(lib_a-nano-mallocr.o)
 .bss           0x0000000000000000        0x0 c:/users/erth0001/user/gnuarmeclipse_photon/eclipse/gnu mcu eclipse/arm embedded gcc/bin/../lib/gcc/arm-none-eabi/7.3.1/../../../../arm-none-eabi/lib/thumb/v7e-m/fpv4-sp/hard\libg_nano.a(lib_a-nano-mallocr.o)
 .text          0x0000000000000000        0x0 c:/users/erth0001/user/gnuarmeclipse_photon/eclipse/gnu mcu eclipse/arm embedded gcc/bin/../lib/gcc/arm-none-eabi/7.3.1/../../../../arm-none-eabi/lib/thumb/v7e-m/fpv4-sp/hard\libg_nano.a(lib_a-nano-svfprintf.o)
 .data          0x0000000000000000        0x0 c:/users/erth0001/user/gnuarmeclipse_photon/eclipse/gnu mcu eclipse/arm embedded gcc/bin/../lib/gcc/arm-none-eabi/7.3.1/../../../../arm-none-eabi/lib/thumb/v7e-m/fpv4-sp/hard\libg_nano.a(lib_a-nano-svfprintf.o)
 .bss           0x0000000000000000        0x0 c:/users/erth0001/user/gnuarmeclipse_photon/eclipse/gnu mcu eclipse/arm embedded gcc/bin/../lib/gcc/arm-none-eabi/7.3.1/../../../../arm-none-eabi/lib/thumb/v7e-m/fpv4-sp/hard\libg_nano.a(lib_a-nano-svfprintf.o)
 .text.__ssprint_r
                0x0000000000000000       0xf0 c:/users/erth0001/user/gnuarmeclipse_photon/eclipse/gnu mcu eclipse/arm embedded gcc/bin/../lib/gcc/arm-none-eabi/7.3.1/../../../../arm-none-eabi/lib/thumb/v7e-m/fpv4-sp/hard\libg_nano.a(lib_a-nano-svfprintf.o)
 .text          0x0000000000000000        0x0 c:/users/erth0001/user/gnuarmeclipse_photon/eclipse/gnu mcu eclipse/arm embedded gcc/bin/../lib/gcc/arm-none-eabi/7.3.1/../../../../arm-none-eabi/lib/thumb/v7e-m/fpv4-sp/hard\libg_nano.a(lib_a-nano-vfprintf.o)
 .data          0x0000000000000000        0x0 c:/users/erth0001/user/gnuarmeclipse_photon/eclipse/gnu mcu eclipse/arm embedded gcc/bin/../lib/gcc/arm-none-eabi/7.3.1/../../../../arm-none-eabi/lib/thumb/v7e-m/fpv4-sp/hard\libg_nano.a(lib_a-nano-vfprintf.o)
 .bss           0x0000000000000000        0x0 c:/users/erth0001/user/gnuarmeclipse_photon/eclipse/gnu mcu eclipse/arm embedded gcc/bin/../lib/gcc/arm-none-eabi/7.3.1/../../../../arm-none-eabi/lib/thumb/v7e-m/fpv4-sp/hard\libg_nano.a(lib_a-nano-vfprintf.o)
 .text.__sprint_r
                0x0000000000000000       0x1a c:/users/erth0001/user/gnuarmeclipse_photon/eclipse/gnu mcu eclipse/arm embedded gcc/bin/../lib/gcc/arm-none-eabi/7.3.1/../../../../arm-none-eabi/lib/thumb/v7e-m/fpv4-sp/hard\libg_nano.a(lib_a-nano-vfprintf.o)
 .text.vfprintf
                0x0000000000000000       0x14 c:/users/erth0001/user/gnuarmeclipse_photon/eclipse/gnu mcu eclipse/arm embedded gcc/bin/../lib/gcc/arm-none-eabi/7.3.1/../../../../arm-none-eabi/lib/thumb/v7e-m/fpv4-sp/hard\libg_nano.a(lib_a-nano-vfprintf.o)
 .text          0x0000000000000000        0x0 c:/users/erth0001/user/gnuarmeclipse_photon/eclipse/gnu mcu eclipse/arm embedded gcc/bin/../lib/gcc/arm-none-eabi/7.3.1/../../../../arm-none-eabi/lib/thumb/v7e-m/fpv4-sp/hard\libg_nano.a(lib_a-sbrkr.o)
 .data          0x0000000000000000        0x0 c:/users/erth0001/user/gnuarmeclipse_photon/eclipse/gnu mcu eclipse/arm embedded gcc/bin/../lib/gcc/arm-none-eabi/7.3.1/../../../../arm-none-eabi/lib/thumb/v7e-m/fpv4-sp/hard\libg_nano.a(lib_a-sbrkr.o)
 .bss           0x0000000000000000        0x0 c:/users/erth0001/user/gnuarmeclipse_photon/eclipse/gnu mcu eclipse/arm embedded gcc/bin/../lib/gcc/arm-none-eabi/7.3.1/../../../../arm-none-eabi/lib/thumb/v7e-m/fpv4-sp/hard\libg_nano.a(lib_a-sbrkr.o)
 .text          0x0000000000000000        0x0 c:/users/erth0001/user/gnuarmeclipse_photon/eclipse/gnu mcu eclipse/arm embedded gcc/bin/../lib/gcc/arm-none-eabi/7.3.1/../../../../arm-none-eabi/lib/thumb/v7e-m/fpv4-sp/hard\libg_nano.a(lib_a-stdio.o)
 .data          0x0000000000000000        0x0 c:/users/erth0001/user/gnuarmeclipse_photon/eclipse/gnu mcu eclipse/arm embedded gcc/bin/../lib/gcc/arm-none-eabi/7.3.1/../../../../arm-none-eabi/lib/thumb/v7e-m/fpv4-sp/hard\libg_nano.a(lib_a-stdio.o)
 .bss           0x0000000000000000        0x0 c:/users/erth0001/user/gnuarmeclipse_photon/eclipse/gnu mcu eclipse/arm embedded gcc/bin/../lib/gcc/arm-none-eabi/7.3.1/../../../../arm-none-eabi/lib/thumb/v7e-m/fpv4-sp/hard\libg_nano.a(lib_a-stdio.o)
 .text.__seofread
                0x0000000000000000        0x4 c:/users/erth0001/user/gnuarmeclipse_photon/eclipse/gnu mcu eclipse/arm embedded gcc/bin/../lib/gcc/arm-none-eabi/7.3.1/../../../../arm-none-eabi/lib/thumb/v7e-m/fpv4-sp/hard\libg_nano.a(lib_a-stdio.o)
 .text          0x0000000000000000       0x14 c:/users/erth0001/user/gnuarmeclipse_photon/eclipse/gnu mcu eclipse/arm embedded gcc/bin/../lib/gcc/arm-none-eabi/7.3.1/../../../../arm-none-eabi/lib/thumb/v7e-m/fpv4-sp/hard\libg_nano.a(lib_a-strcmp.o)
 .data          0x0000000000000000        0x0 c:/users/erth0001/user/gnuarmeclipse_photon/eclipse/gnu mcu eclipse/arm embedded gcc/bin/../lib/gcc/arm-none-eabi/7.3.1/../../../../arm-none-eabi/lib/thumb/v7e-m/fpv4-sp/hard\libg_nano.a(lib_a-strcmp.o)
 .bss           0x0000000000000000        0x0 c:/users/erth0001/user/gnuarmeclipse_photon/eclipse/gnu mcu eclipse/arm embedded gcc/bin/../lib/gcc/arm-none-eabi/7.3.1/../../../../arm-none-eabi/lib/thumb/v7e-m/fpv4-sp/hard\libg_nano.a(lib_a-strcmp.o)
 .debug_frame   0x0000000000000000       0x20 c:/users/erth0001/user/gnuarmeclipse_photon/eclipse/gnu mcu eclipse/arm embedded gcc/bin/../lib/gcc/arm-none-eabi/7.3.1/../../../../arm-none-eabi/lib/thumb/v7e-m/fpv4-sp/hard\libg_nano.a(lib_a-strcmp.o)
 .text          0x0000000000000000        0x0 c:/users/erth0001/user/gnuarmeclipse_photon/eclipse/gnu mcu eclipse/arm embedded gcc/bin/../lib/gcc/arm-none-eabi/7.3.1/../../../../arm-none-eabi/lib/thumb/v7e-m/fpv4-sp/hard\libg_nano.a(lib_a-strncmp.o)
 .data          0x0000000000000000        0x0 c:/users/erth0001/user/gnuarmeclipse_photon/eclipse/gnu mcu eclipse/arm embedded gcc/bin/../lib/gcc/arm-none-eabi/7.3.1/../../../../arm-none-eabi/lib/thumb/v7e-m/fpv4-sp/hard\libg_nano.a(lib_a-strncmp.o)
 .bss           0x0000000000000000        0x0 c:/users/erth0001/user/gnuarmeclipse_photon/eclipse/gnu mcu eclipse/arm embedded gcc/bin/../lib/gcc/arm-none-eabi/7.3.1/../../../../arm-none-eabi/lib/thumb/v7e-m/fpv4-sp/hard\libg_nano.a(lib_a-strncmp.o)
 .text          0x0000000000000000        0x0 c:/users/erth0001/user/gnuarmeclipse_photon/eclipse/gnu mcu eclipse/arm embedded gcc/bin/../lib/gcc/arm-none-eabi/7.3.1/../../../../arm-none-eabi/lib/thumb/v7e-m/fpv4-sp/hard\libg_nano.a(lib_a-wbuf.o)
 .data          0x0000000000000000        0x0 c:/users/erth0001/user/gnuarmeclipse_photon/eclipse/gnu mcu eclipse/arm embedded gcc/bin/../lib/gcc/arm-none-eabi/7.3.1/../../../../arm-none-eabi/lib/thumb/v7e-m/fpv4-sp/hard\libg_nano.a(lib_a-wbuf.o)
 .bss           0x0000000000000000        0x0 c:/users/erth0001/user/gnuarmeclipse_photon/eclipse/gnu mcu eclipse/arm embedded gcc/bin/../lib/gcc/arm-none-eabi/7.3.1/../../../../arm-none-eabi/lib/thumb/v7e-m/fpv4-sp/hard\libg_nano.a(lib_a-wbuf.o)
 .text.__swbuf  0x0000000000000000       0x10 c:/users/erth0001/user/gnuarmeclipse_photon/eclipse/gnu mcu eclipse/arm embedded gcc/bin/../lib/gcc/arm-none-eabi/7.3.1/../../../../arm-none-eabi/lib/thumb/v7e-m/fpv4-sp/hard\libg_nano.a(lib_a-wbuf.o)
 .text          0x0000000000000000        0x0 c:/users/erth0001/user/gnuarmeclipse_photon/eclipse/gnu mcu eclipse/arm embedded gcc/bin/../lib/gcc/arm-none-eabi/7.3.1/../../../../arm-none-eabi/lib/thumb/v7e-m/fpv4-sp/hard\libg_nano.a(lib_a-wctomb_r.o)
 .data          0x0000000000000000        0x0 c:/users/erth0001/user/gnuarmeclipse_photon/eclipse/gnu mcu eclipse/arm embedded gcc/bin/../lib/gcc/arm-none-eabi/7.3.1/../../../../arm-none-eabi/lib/thumb/v7e-m/fpv4-sp/hard\libg_nano.a(lib_a-wctomb_r.o)
 .bss           0x0000000000000000        0x0 c:/users/erth0001/user/gnuarmeclipse_photon/eclipse/gnu mcu eclipse/arm embedded gcc/bin/../lib/gcc/arm-none-eabi/7.3.1/../../../../arm-none-eabi/lib/thumb/v7e-m/fpv4-sp/hard\libg_nano.a(lib_a-wctomb_r.o)
 .text._wctomb_r
                0x0000000000000000       0x24 c:/users/erth0001/user/gnuarmeclipse_photon/eclipse/gnu mcu eclipse/arm embedded gcc/bin/../lib/gcc/arm-none-eabi/7.3.1/../../../../arm-none-eabi/lib/thumb/v7e-m/fpv4-sp/hard\libg_nano.a(lib_a-wctomb_r.o)
 .text          0x0000000000000000        0x0 c:/users/erth0001/user/gnuarmeclipse_photon/eclipse/gnu mcu eclipse/arm embedded gcc/bin/../lib/gcc/arm-none-eabi/7.3.1/../../../../arm-none-eabi/lib/thumb/v7e-m/fpv4-sp/hard\libg_nano.a(lib_a-writer.o)
 .data          0x0000000000000000        0x0 c:/users/erth0001/user/gnuarmeclipse_photon/eclipse/gnu mcu eclipse/arm embedded gcc/bin/../lib/gcc/arm-none-eabi/7.3.1/../../../../arm-none-eabi/lib/thumb/v7e-m/fpv4-sp/hard\libg_nano.a(lib_a-writer.o)
 .bss           0x0000000000000000        0x0 c:/users/erth0001/user/gnuarmeclipse_photon/eclipse/gnu mcu eclipse/arm embedded gcc/bin/../lib/gcc/arm-none-eabi/7.3.1/../../../../arm-none-eabi/lib/thumb/v7e-m/fpv4-sp/hard\libg_nano.a(lib_a-writer.o)
 .text          0x0000000000000000        0x0 c:/users/erth0001/user/gnuarmeclipse_photon/eclipse/gnu mcu eclipse/arm embedded gcc/bin/../lib/gcc/arm-none-eabi/7.3.1/../../../../arm-none-eabi/lib/thumb/v7e-m/fpv4-sp/hard\libg_nano.a(lib_a-wsetup.o)
 .data          0x0000000000000000        0x0 c:/users/erth0001/user/gnuarmeclipse_photon/eclipse/gnu mcu eclipse/arm embedded gcc/bin/../lib/gcc/arm-none-eabi/7.3.1/../../../../arm-none-eabi/lib/thumb/v7e-m/fpv4-sp/hard\libg_nano.a(lib_a-wsetup.o)
 .bss           0x0000000000000000        0x0 c:/users/erth0001/user/gnuarmeclipse_photon/eclipse/gnu mcu eclipse/arm embedded gcc/bin/../lib/gcc/arm-none-eabi/7.3.1/../../../../arm-none-eabi/lib/thumb/v7e-m/fpv4-sp/hard\libg_nano.a(lib_a-wsetup.o)
 .text          0x0000000000000000        0x0 c:/users/erth0001/user/gnuarmeclipse_photon/eclipse/gnu mcu eclipse/arm embedded gcc/bin/../lib/gcc/arm-none-eabi/7.3.1/../../../../arm-none-eabi/lib/thumb/v7e-m/fpv4-sp/hard\libg_nano.a(lib_a-closer.o)
 .data          0x0000000000000000        0x0 c:/users/erth0001/user/gnuarmeclipse_photon/eclipse/gnu mcu eclipse/arm embedded gcc/bin/../lib/gcc/arm-none-eabi/7.3.1/../../../../arm-none-eabi/lib/thumb/v7e-m/fpv4-sp/hard\libg_nano.a(lib_a-closer.o)
 .bss           0x0000000000000000        0x0 c:/users/erth0001/user/gnuarmeclipse_photon/eclipse/gnu mcu eclipse/arm embedded gcc/bin/../lib/gcc/arm-none-eabi/7.3.1/../../../../arm-none-eabi/lib/thumb/v7e-m/fpv4-sp/hard\libg_nano.a(lib_a-closer.o)
 .text          0x0000000000000000        0x0 c:/users/erth0001/user/gnuarmeclipse_photon/eclipse/gnu mcu eclipse/arm embedded gcc/bin/../lib/gcc/arm-none-eabi/7.3.1/../../../../arm-none-eabi/lib/thumb/v7e-m/fpv4-sp/hard\libg_nano.a(lib_a-ctype_.o)
 .data          0x0000000000000000        0x0 c:/users/erth0001/user/gnuarmeclipse_photon/eclipse/gnu mcu eclipse/arm embedded gcc/bin/../lib/gcc/arm-none-eabi/7.3.1/../../../../arm-none-eabi/lib/thumb/v7e-m/fpv4-sp/hard\libg_nano.a(lib_a-ctype_.o)
 .bss           0x0000000000000000        0x0 c:/users/erth0001/user/gnuarmeclipse_photon/eclipse/gnu mcu eclipse/arm embedded gcc/bin/../lib/gcc/arm-none-eabi/7.3.1/../../../../arm-none-eabi/lib/thumb/v7e-m/fpv4-sp/hard\libg_nano.a(lib_a-ctype_.o)
 .text          0x0000000000000000        0x0 c:/users/erth0001/user/gnuarmeclipse_photon/eclipse/gnu mcu eclipse/arm embedded gcc/bin/../lib/gcc/arm-none-eabi/7.3.1/../../../../arm-none-eabi/lib/thumb/v7e-m/fpv4-sp/hard\libg_nano.a(lib_a-fflush.o)
 .data          0x0000000000000000        0x0 c:/users/erth0001/user/gnuarmeclipse_photon/eclipse/gnu mcu eclipse/arm embedded gcc/bin/../lib/gcc/arm-none-eabi/7.3.1/../../../../arm-none-eabi/lib/thumb/v7e-m/fpv4-sp/hard\libg_nano.a(lib_a-fflush.o)
 .bss           0x0000000000000000        0x0 c:/users/erth0001/user/gnuarmeclipse_photon/eclipse/gnu mcu eclipse/arm embedded gcc/bin/../lib/gcc/arm-none-eabi/7.3.1/../../../../arm-none-eabi/lib/thumb/v7e-m/fpv4-sp/hard\libg_nano.a(lib_a-fflush.o)
 .text.fflush   0x0000000000000000       0x24 c:/users/erth0001/user/gnuarmeclipse_photon/eclipse/gnu mcu eclipse/arm embedded gcc/bin/../lib/gcc/arm-none-eabi/7.3.1/../../../../arm-none-eabi/lib/thumb/v7e-m/fpv4-sp/hard\libg_nano.a(lib_a-fflush.o)
 .text          0x0000000000000000        0x0 c:/users/erth0001/user/gnuarmeclipse_photon/eclipse/gnu mcu eclipse/arm embedded gcc/bin/../lib/gcc/arm-none-eabi/7.3.1/../../../../arm-none-eabi/lib/thumb/v7e-m/fpv4-sp/hard\libg_nano.a(lib_a-fvwrite.o)
 .data          0x0000000000000000        0x0 c:/users/erth0001/user/gnuarmeclipse_photon/eclipse/gnu mcu eclipse/arm embedded gcc/bin/../lib/gcc/arm-none-eabi/7.3.1/../../../../arm-none-eabi/lib/thumb/v7e-m/fpv4-sp/hard\libg_nano.a(lib_a-fvwrite.o)
 .bss           0x0000000000000000        0x0 c:/users/erth0001/user/gnuarmeclipse_photon/eclipse/gnu mcu eclipse/arm embedded gcc/bin/../lib/gcc/arm-none-eabi/7.3.1/../../../../arm-none-eabi/lib/thumb/v7e-m/fpv4-sp/hard\libg_nano.a(lib_a-fvwrite.o)
 .text.__sfvwrite_r
                0x0000000000000000      0x29c c:/users/erth0001/user/gnuarmeclipse_photon/eclipse/gnu mcu eclipse/arm embedded gcc/bin/../lib/gcc/arm-none-eabi/7.3.1/../../../../arm-none-eabi/lib/thumb/v7e-m/fpv4-sp/hard\libg_nano.a(lib_a-fvwrite.o)
 .debug_frame   0x0000000000000000       0x3c c:/users/erth0001/user/gnuarmeclipse_photon/eclipse/gnu mcu eclipse/arm embedded gcc/bin/../lib/gcc/arm-none-eabi/7.3.1/../../../../arm-none-eabi/lib/thumb/v7e-m/fpv4-sp/hard\libg_nano.a(lib_a-fvwrite.o)
 .text          0x0000000000000000        0x0 c:/users/erth0001/user/gnuarmeclipse_photon/eclipse/gnu mcu eclipse/arm embedded gcc/bin/../lib/gcc/arm-none-eabi/7.3.1/../../../../arm-none-eabi/lib/thumb/v7e-m/fpv4-sp/hard\libg_nano.a(lib_a-lseekr.o)
 .data          0x0000000000000000        0x0 c:/users/erth0001/user/gnuarmeclipse_photon/eclipse/gnu mcu eclipse/arm embedded gcc/bin/../lib/gcc/arm-none-eabi/7.3.1/../../../../arm-none-eabi/lib/thumb/v7e-m/fpv4-sp/hard\libg_nano.a(lib_a-lseekr.o)
 .bss           0x0000000000000000        0x0 c:/users/erth0001/user/gnuarmeclipse_photon/eclipse/gnu mcu eclipse/arm embedded gcc/bin/../lib/gcc/arm-none-eabi/7.3.1/../../../../arm-none-eabi/lib/thumb/v7e-m/fpv4-sp/hard\libg_nano.a(lib_a-lseekr.o)
 .text          0x0000000000000000        0x0 c:/users/erth0001/user/gnuarmeclipse_photon/eclipse/gnu mcu eclipse/arm embedded gcc/bin/../lib/gcc/arm-none-eabi/7.3.1/../../../../arm-none-eabi/lib/thumb/v7e-m/fpv4-sp/hard\libg_nano.a(lib_a-makebuf.o)
 .data          0x0000000000000000        0x0 c:/users/erth0001/user/gnuarmeclipse_photon/eclipse/gnu mcu eclipse/arm embedded gcc/bin/../lib/gcc/arm-none-eabi/7.3.1/../../../../arm-none-eabi/lib/thumb/v7e-m/fpv4-sp/hard\libg_nano.a(lib_a-makebuf.o)
 .bss           0x0000000000000000        0x0 c:/users/erth0001/user/gnuarmeclipse_photon/eclipse/gnu mcu eclipse/arm embedded gcc/bin/../lib/gcc/arm-none-eabi/7.3.1/../../../../arm-none-eabi/lib/thumb/v7e-m/fpv4-sp/hard\libg_nano.a(lib_a-makebuf.o)
 .text          0x0000000000000000        0x0 c:/users/erth0001/user/gnuarmeclipse_photon/eclipse/gnu mcu eclipse/arm embedded gcc/bin/../lib/gcc/arm-none-eabi/7.3.1/../../../../arm-none-eabi/lib/thumb/v7e-m/fpv4-sp/hard\libg_nano.a(lib_a-memmove.o)
 .data          0x0000000000000000        0x0 c:/users/erth0001/user/gnuarmeclipse_photon/eclipse/gnu mcu eclipse/arm embedded gcc/bin/../lib/gcc/arm-none-eabi/7.3.1/../../../../arm-none-eabi/lib/thumb/v7e-m/fpv4-sp/hard\libg_nano.a(lib_a-memmove.o)
 .bss           0x0000000000000000        0x0 c:/users/erth0001/user/gnuarmeclipse_photon/eclipse/gnu mcu eclipse/arm embedded gcc/bin/../lib/gcc/arm-none-eabi/7.3.1/../../../../arm-none-eabi/lib/thumb/v7e-m/fpv4-sp/hard\libg_nano.a(lib_a-memmove.o)
 .text          0x0000000000000000        0x0 c:/users/erth0001/user/gnuarmeclipse_photon/eclipse/gnu mcu eclipse/arm embedded gcc/bin/../lib/gcc/arm-none-eabi/7.3.1/../../../../arm-none-eabi/lib/thumb/v7e-m/fpv4-sp/hard\libg_nano.a(lib_a-mlock.o)
 .data          0x0000000000000000        0x0 c:/users/erth0001/user/gnuarmeclipse_photon/eclipse/gnu mcu eclipse/arm embedded gcc/bin/../lib/gcc/arm-none-eabi/7.3.1/../../../../arm-none-eabi/lib/thumb/v7e-m/fpv4-sp/hard\libg_nano.a(lib_a-mlock.o)
 .bss           0x0000000000000000        0x0 c:/users/erth0001/user/gnuarmeclipse_photon/eclipse/gnu mcu eclipse/arm embedded gcc/bin/../lib/gcc/arm-none-eabi/7.3.1/../../../../arm-none-eabi/lib/thumb/v7e-m/fpv4-sp/hard\libg_nano.a(lib_a-mlock.o)
 .text          0x0000000000000000        0x0 c:/users/erth0001/user/gnuarmeclipse_photon/eclipse/gnu mcu eclipse/arm embedded gcc/bin/../lib/gcc/arm-none-eabi/7.3.1/../../../../arm-none-eabi/lib/thumb/v7e-m/fpv4-sp/hard\libg_nano.a(lib_a-nano-reallocr.o)
 .data          0x0000000000000000        0x0 c:/users/erth0001/user/gnuarmeclipse_photon/eclipse/gnu mcu eclipse/arm embedded gcc/bin/../lib/gcc/arm-none-eabi/7.3.1/../../../../arm-none-eabi/lib/thumb/v7e-m/fpv4-sp/hard\libg_nano.a(lib_a-nano-reallocr.o)
 .bss           0x0000000000000000        0x0 c:/users/erth0001/user/gnuarmeclipse_photon/eclipse/gnu mcu eclipse/arm embedded gcc/bin/../lib/gcc/arm-none-eabi/7.3.1/../../../../arm-none-eabi/lib/thumb/v7e-m/fpv4-sp/hard\libg_nano.a(lib_a-nano-reallocr.o)
 .text          0x0000000000000000        0x0 c:/users/erth0001/user/gnuarmeclipse_photon/eclipse/gnu mcu eclipse/arm embedded gcc/bin/../lib/gcc/arm-none-eabi/7.3.1/../../../../arm-none-eabi/lib/thumb/v7e-m/fpv4-sp/hard\libg_nano.a(lib_a-readr.o)
 .data          0x0000000000000000        0x0 c:/users/erth0001/user/gnuarmeclipse_photon/eclipse/gnu mcu eclipse/arm embedded gcc/bin/../lib/gcc/arm-none-eabi/7.3.1/../../../../arm-none-eabi/lib/thumb/v7e-m/fpv4-sp/hard\libg_nano.a(lib_a-readr.o)
 .bss           0x0000000000000000        0x0 c:/users/erth0001/user/gnuarmeclipse_photon/eclipse/gnu mcu eclipse/arm embedded gcc/bin/../lib/gcc/arm-none-eabi/7.3.1/../../../../arm-none-eabi/lib/thumb/v7e-m/fpv4-sp/hard\libg_nano.a(lib_a-readr.o)
 .text          0x0000000000000000        0x0 c:/users/erth0001/user/gnuarmeclipse_photon/eclipse/gnu mcu eclipse/arm embedded gcc/bin/../lib/gcc/arm-none-eabi/7.3.1/../../../../arm-none-eabi/lib/thumb/v7e-m/fpv4-sp/hard\libg_nano.a(lib_a-reent.o)
 .data          0x0000000000000000        0x0 c:/users/erth0001/user/gnuarmeclipse_photon/eclipse/gnu mcu eclipse/arm embedded gcc/bin/../lib/gcc/arm-none-eabi/7.3.1/../../../../arm-none-eabi/lib/thumb/v7e-m/fpv4-sp/hard\libg_nano.a(lib_a-reent.o)
 .bss           0x0000000000000000        0x0 c:/users/erth0001/user/gnuarmeclipse_photon/eclipse/gnu mcu eclipse/arm embedded gcc/bin/../lib/gcc/arm-none-eabi/7.3.1/../../../../arm-none-eabi/lib/thumb/v7e-m/fpv4-sp/hard\libg_nano.a(lib_a-reent.o)
 .text.cleanup_glue
                0x0000000000000000       0x1a c:/users/erth0001/user/gnuarmeclipse_photon/eclipse/gnu mcu eclipse/arm embedded gcc/bin/../lib/gcc/arm-none-eabi/7.3.1/../../../../arm-none-eabi/lib/thumb/v7e-m/fpv4-sp/hard\libg_nano.a(lib_a-reent.o)
 .text._reclaim_reent
                0x0000000000000000       0xb8 c:/users/erth0001/user/gnuarmeclipse_photon/eclipse/gnu mcu eclipse/arm embedded gcc/bin/../lib/gcc/arm-none-eabi/7.3.1/../../../../arm-none-eabi/lib/thumb/v7e-m/fpv4-sp/hard\libg_nano.a(lib_a-reent.o)
 .text          0x0000000000000000        0x0 c:/users/erth0001/user/gnuarmeclipse_photon/eclipse/gnu mcu eclipse/arm embedded gcc/bin/../lib/gcc/arm-none-eabi/7.3.1/../../../../arm-none-eabi/lib/thumb/v7e-m/fpv4-sp/hard\libg_nano.a(lib_a-fstatr.o)
 .data          0x0000000000000000        0x0 c:/users/erth0001/user/gnuarmeclipse_photon/eclipse/gnu mcu eclipse/arm embedded gcc/bin/../lib/gcc/arm-none-eabi/7.3.1/../../../../arm-none-eabi/lib/thumb/v7e-m/fpv4-sp/hard\libg_nano.a(lib_a-fstatr.o)
 .bss           0x0000000000000000        0x0 c:/users/erth0001/user/gnuarmeclipse_photon/eclipse/gnu mcu eclipse/arm embedded gcc/bin/../lib/gcc/arm-none-eabi/7.3.1/../../../../arm-none-eabi/lib/thumb/v7e-m/fpv4-sp/hard\libg_nano.a(lib_a-fstatr.o)
 .text          0x0000000000000000        0x0 c:/users/erth0001/user/gnuarmeclipse_photon/eclipse/gnu mcu eclipse/arm embedded gcc/bin/../lib/gcc/arm-none-eabi/7.3.1/../../../../arm-none-eabi/lib/thumb/v7e-m/fpv4-sp/hard\libg_nano.a(lib_a-isattyr.o)
 .data          0x0000000000000000        0x0 c:/users/erth0001/user/gnuarmeclipse_photon/eclipse/gnu mcu eclipse/arm embedded gcc/bin/../lib/gcc/arm-none-eabi/7.3.1/../../../../arm-none-eabi/lib/thumb/v7e-m/fpv4-sp/hard\libg_nano.a(lib_a-isattyr.o)
 .bss           0x0000000000000000        0x0 c:/users/erth0001/user/gnuarmeclipse_photon/eclipse/gnu mcu eclipse/arm embedded gcc/bin/../lib/gcc/arm-none-eabi/7.3.1/../../../../arm-none-eabi/lib/thumb/v7e-m/fpv4-sp/hard\libg_nano.a(lib_a-isattyr.o)
 .text          0x0000000000000000        0x0 c:/users/erth0001/user/gnuarmeclipse_photon/eclipse/gnu mcu eclipse/arm embedded gcc/bin/../lib/gcc/arm-none-eabi/7.3.1/../../../../arm-none-eabi/lib/thumb/v7e-m/fpv4-sp/hard\libg_nano.a(lib_a-nano-msizer.o)
 .data          0x0000000000000000        0x0 c:/users/erth0001/user/gnuarmeclipse_photon/eclipse/gnu mcu eclipse/arm embedded gcc/bin/../lib/gcc/arm-none-eabi/7.3.1/../../../../arm-none-eabi/lib/thumb/v7e-m/fpv4-sp/hard\libg_nano.a(lib_a-nano-msizer.o)
 .bss           0x0000000000000000        0x0 c:/users/erth0001/user/gnuarmeclipse_photon/eclipse/gnu mcu eclipse/arm embedded gcc/bin/../lib/gcc/arm-none-eabi/7.3.1/../../../../arm-none-eabi/lib/thumb/v7e-m/fpv4-sp/hard\libg_nano.a(lib_a-nano-msizer.o)
 .data          0x0000000000000000        0x0 c:/users/erth0001/user/gnuarmeclipse_photon/eclipse/gnu mcu eclipse/arm embedded gcc/bin/../lib/gcc/arm-none-eabi/7.3.1/thumb/v7e-m/fpv4-sp/hard\libgcc.a(_arm_addsubdf3.o)
 .bss           0x0000000000000000        0x0 c:/users/erth0001/user/gnuarmeclipse_photon/eclipse/gnu mcu eclipse/arm embedded gcc/bin/../lib/gcc/arm-none-eabi/7.3.1/thumb/v7e-m/fpv4-sp/hard\libgcc.a(_arm_addsubdf3.o)
 .data          0x0000000000000000        0x0 c:/users/erth0001/user/gnuarmeclipse_photon/eclipse/gnu mcu eclipse/arm embedded gcc/bin/../lib/gcc/arm-none-eabi/7.3.1/thumb/v7e-m/fpv4-sp/hard\libgcc.a(_arm_muldivdf3.o)
 .bss           0x0000000000000000        0x0 c:/users/erth0001/user/gnuarmeclipse_photon/eclipse/gnu mcu eclipse/arm embedded gcc/bin/../lib/gcc/arm-none-eabi/7.3.1/thumb/v7e-m/fpv4-sp/hard\libgcc.a(_arm_muldivdf3.o)
 .data          0x0000000000000000        0x0 c:/users/erth0001/user/gnuarmeclipse_photon/eclipse/gnu mcu eclipse/arm embedded gcc/bin/../lib/gcc/arm-none-eabi/7.3.1/thumb/v7e-m/fpv4-sp/hard\libgcc.a(_arm_cmpdf2.o)
 .bss           0x0000000000000000        0x0 c:/users/erth0001/user/gnuarmeclipse_photon/eclipse/gnu mcu eclipse/arm embedded gcc/bin/../lib/gcc/arm-none-eabi/7.3.1/thumb/v7e-m/fpv4-sp/hard\libgcc.a(_arm_cmpdf2.o)
 .data          0x0000000000000000        0x0 c:/users/erth0001/user/gnuarmeclipse_photon/eclipse/gnu mcu eclipse/arm embedded gcc/bin/../lib/gcc/arm-none-eabi/7.3.1/thumb/v7e-m/fpv4-sp/hard\libgcc.a(_arm_unorddf2.o)
 .bss           0x0000000000000000        0x0 c:/users/erth0001/user/gnuarmeclipse_photon/eclipse/gnu mcu eclipse/arm embedded gcc/bin/../lib/gcc/arm-none-eabi/7.3.1/thumb/v7e-m/fpv4-sp/hard\libgcc.a(_arm_unorddf2.o)
 .data          0x0000000000000000        0x0 c:/users/erth0001/user/gnuarmeclipse_photon/eclipse/gnu mcu eclipse/arm embedded gcc/bin/../lib/gcc/arm-none-eabi/7.3.1/thumb/v7e-m/fpv4-sp/hard\libgcc.a(_arm_fixdfsi.o)
 .bss           0x0000000000000000        0x0 c:/users/erth0001/user/gnuarmeclipse_photon/eclipse/gnu mcu eclipse/arm embedded gcc/bin/../lib/gcc/arm-none-eabi/7.3.1/thumb/v7e-m/fpv4-sp/hard\libgcc.a(_arm_fixdfsi.o)
 .data          0x0000000000000000        0x0 c:/users/erth0001/user/gnuarmeclipse_photon/eclipse/gnu mcu eclipse/arm embedded gcc/bin/../lib/gcc/arm-none-eabi/7.3.1/thumb/v7e-m/fpv4-sp/hard\libgcc.a(_arm_fixunsdfsi.o)
 .bss           0x0000000000000000        0x0 c:/users/erth0001/user/gnuarmeclipse_photon/eclipse/gnu mcu eclipse/arm embedded gcc/bin/../lib/gcc/arm-none-eabi/7.3.1/thumb/v7e-m/fpv4-sp/hard\libgcc.a(_arm_fixunsdfsi.o)
 .text          0x0000000000000000        0x0 c:/users/erth0001/user/gnuarmeclipse_photon/eclipse/gnu mcu eclipse/arm embedded gcc/bin/../lib/gcc/arm-none-eabi/7.3.1/../../../../arm-none-eabi/lib/thumb/v7e-m/fpv4-sp/hard\librdimon_nano.a(rdimon-syscalls.o)
 .data          0x0000000000000000        0x0 c:/users/erth0001/user/gnuarmeclipse_photon/eclipse/gnu mcu eclipse/arm embedded gcc/bin/../lib/gcc/arm-none-eabi/7.3.1/../../../../arm-none-eabi/lib/thumb/v7e-m/fpv4-sp/hard\librdimon_nano.a(rdimon-syscalls.o)
 .bss           0x0000000000000000        0x0 c:/users/erth0001/user/gnuarmeclipse_photon/eclipse/gnu mcu eclipse/arm embedded gcc/bin/../lib/gcc/arm-none-eabi/7.3.1/../../../../arm-none-eabi/lib/thumb/v7e-m/fpv4-sp/hard\librdimon_nano.a(rdimon-syscalls.o)
 .text._getpid  0x0000000000000000        0x4 c:/users/erth0001/user/gnuarmeclipse_photon/eclipse/gnu mcu eclipse/arm embedded gcc/bin/../lib/gcc/arm-none-eabi/7.3.1/../../../../arm-none-eabi/lib/thumb/v7e-m/fpv4-sp/hard\librdimon_nano.a(rdimon-syscalls.o)
 .text._open    0x0000000000000000       0x12 c:/users/erth0001/user/gnuarmeclipse_photon/eclipse/gnu mcu eclipse/arm embedded gcc/bin/../lib/gcc/arm-none-eabi/7.3.1/../../../../arm-none-eabi/lib/thumb/v7e-m/fpv4-sp/hard\librdimon_nano.a(rdimon-syscalls.o)
 .text._has_ext_exit_extended
                0x0000000000000000       0x18 c:/users/erth0001/user/gnuarmeclipse_photon/eclipse/gnu mcu eclipse/arm embedded gcc/bin/../lib/gcc/arm-none-eabi/7.3.1/../../../../arm-none-eabi/lib/thumb/v7e-m/fpv4-sp/hard\librdimon_nano.a(rdimon-syscalls.o)
 .text._link    0x0000000000000000       0x10 c:/users/erth0001/user/gnuarmeclipse_photon/eclipse/gnu mcu eclipse/arm embedded gcc/bin/../lib/gcc/arm-none-eabi/7.3.1/../../../../arm-none-eabi/lib/thumb/v7e-m/fpv4-sp/hard\librdimon_nano.a(rdimon-syscalls.o)
 .text._unlink  0x0000000000000000       0x28 c:/users/erth0001/user/gnuarmeclipse_photon/eclipse/gnu mcu eclipse/arm embedded gcc/bin/../lib/gcc/arm-none-eabi/7.3.1/../../../../arm-none-eabi/lib/thumb/v7e-m/fpv4-sp/hard\librdimon_nano.a(rdimon-syscalls.o)
 .text._gettimeofday
                0x0000000000000000       0x2a c:/users/erth0001/user/gnuarmeclipse_photon/eclipse/gnu mcu eclipse/arm embedded gcc/bin/../lib/gcc/arm-none-eabi/7.3.1/../../../../arm-none-eabi/lib/thumb/v7e-m/fpv4-sp/hard\librdimon_nano.a(rdimon-syscalls.o)
 .text._clock   0x0000000000000000       0x12 c:/users/erth0001/user/gnuarmeclipse_photon/eclipse/gnu mcu eclipse/arm embedded gcc/bin/../lib/gcc/arm-none-eabi/7.3.1/../../../../arm-none-eabi/lib/thumb/v7e-m/fpv4-sp/hard\librdimon_nano.a(rdimon-syscalls.o)
 .text._times   0x0000000000000000       0x16 c:/users/erth0001/user/gnuarmeclipse_photon/eclipse/gnu mcu eclipse/arm embedded gcc/bin/../lib/gcc/arm-none-eabi/7.3.1/../../../../arm-none-eabi/lib/thumb/v7e-m/fpv4-sp/hard\librdimon_nano.a(rdimon-syscalls.o)
 .text._system  0x0000000000000000       0x3e c:/users/erth0001/user/gnuarmeclipse_photon/eclipse/gnu mcu eclipse/arm embedded gcc/bin/../lib/gcc/arm-none-eabi/7.3.1/../../../../arm-none-eabi/lib/thumb/v7e-m/fpv4-sp/hard\librdimon_nano.a(rdimon-syscalls.o)
 .text._rename  0x0000000000000000       0x36 c:/users/erth0001/user/gnuarmeclipse_photon/eclipse/gnu mcu eclipse/arm embedded gcc/bin/../lib/gcc/arm-none-eabi/7.3.1/../../../../arm-none-eabi/lib/thumb/v7e-m/fpv4-sp/hard\librdimon_nano.a(rdimon-syscalls.o)
 .text          0x0000000000000000        0x0 c:/users/erth0001/user/gnuarmeclipse_photon/eclipse/gnu mcu eclipse/arm embedded gcc/bin/../lib/gcc/arm-none-eabi/7.3.1/../../../../arm-none-eabi/lib/thumb/v7e-m/fpv4-sp/hard\libc_nano.a(lib_a-errno.o)
 .data          0x0000000000000000        0x0 c:/users/erth0001/user/gnuarmeclipse_photon/eclipse/gnu mcu eclipse/arm embedded gcc/bin/../lib/gcc/arm-none-eabi/7.3.1/../../../../arm-none-eabi/lib/thumb/v7e-m/fpv4-sp/hard\libc_nano.a(lib_a-errno.o)
 .bss           0x0000000000000000        0x0 c:/users/erth0001/user/gnuarmeclipse_photon/eclipse/gnu mcu eclipse/arm embedded gcc/bin/../lib/gcc/arm-none-eabi/7.3.1/../../../../arm-none-eabi/lib/thumb/v7e-m/fpv4-sp/hard\libc_nano.a(lib_a-errno.o)

Memory Configuration

Name             Origin             Length             Attributes
ROM              0x0000000000000000 0x0000000000200000 xr
IROM2            0x0000000000406000 0x000000000000a000 xr
RAM              0x000000001ffd0000 0x0000000000030000 xrw
IRAM2            0x0000000020038000 0x0000000000010000 xrw
*default*        0x0000000000000000 0xffffffffffffffff

Linker script and memory map

LOAD ./system/include/platform/FM4_slider_interface.o
LOAD ./system/include/platform/platform.o
LOAD ./system/include/platform/utils.o
LOAD ./system/include/S6E2CCA/startup/startup_s6e2cc.o
LOAD ./system/include/S6E2CCA/PDL/clk.o
LOAD ./system/include/S6E2CCA/PDL/dstc.o
LOAD ./system/include/S6E2CCA/PDL/i2s.o
LOAD ./system/include/S6E2CCA/PDL/interrupts_fm4_type_b.o
LOAD ./system/include/S6E2CCA/PDL/mfs.o
LOAD ./system/include/S6E2CCA/PDL/pdl.o
LOAD ./system/include/S6E2CCA/PDL/system_s6e2cc.o
LOAD ./system/include/S6E2CCA/PDL/wm8731.o
LOAD ./src/Examples/Semihosting.o
LOAD C:\Users\erth0001\User\GNUARMEclipse_Photon\eclipse\workspace_FM4\FM4_FilterLab_1_3_Template\libs\libarm_cortexM4lf_math.a
LOAD c:/users/erth0001/user/gnuarmeclipse_photon/eclipse/gnu mcu eclipse/arm embedded gcc/bin/../lib/gcc/arm-none-eabi/7.3.1/../../../../arm-none-eabi/lib/thumb/v7e-m/fpv4-sp/hard\libstdc++_nano.a
LOAD c:/users/erth0001/user/gnuarmeclipse_photon/eclipse/gnu mcu eclipse/arm embedded gcc/bin/../lib/gcc/arm-none-eabi/7.3.1/../../../../arm-none-eabi/lib/thumb/v7e-m/fpv4-sp/hard\libm.a
START GROUP
LOAD c:/users/erth0001/user/gnuarmeclipse_photon/eclipse/gnu mcu eclipse/arm embedded gcc/bin/../lib/gcc/arm-none-eabi/7.3.1/thumb/v7e-m/fpv4-sp/hard\libgcc.a
LOAD c:/users/erth0001/user/gnuarmeclipse_photon/eclipse/gnu mcu eclipse/arm embedded gcc/bin/../lib/gcc/arm-none-eabi/7.3.1/../../../../arm-none-eabi/lib/thumb/v7e-m/fpv4-sp/hard\libg_nano.a
LOAD c:/users/erth0001/user/gnuarmeclipse_photon/eclipse/gnu mcu eclipse/arm embedded gcc/bin/../lib/gcc/arm-none-eabi/7.3.1/../../../../arm-none-eabi/lib/thumb/v7e-m/fpv4-sp/hard\libc_nano.a
END GROUP
START GROUP
LOAD c:/users/erth0001/user/gnuarmeclipse_photon/eclipse/gnu mcu eclipse/arm embedded gcc/bin/../lib/gcc/arm-none-eabi/7.3.1/thumb/v7e-m/fpv4-sp/hard\libgcc.a
LOAD c:/users/erth0001/user/gnuarmeclipse_photon/eclipse/gnu mcu eclipse/arm embedded gcc/bin/../lib/gcc/arm-none-eabi/7.3.1/../../../../arm-none-eabi/lib/thumb/v7e-m/fpv4-sp/hard\libc_nano.a
LOAD c:/users/erth0001/user/gnuarmeclipse_photon/eclipse/gnu mcu eclipse/arm embedded gcc/bin/../lib/gcc/arm-none-eabi/7.3.1/../../../../arm-none-eabi/lib/thumb/v7e-m/fpv4-sp/hard\librdimon_nano.a
LOAD c:/users/erth0001/user/gnuarmeclipse_photon/eclipse/gnu mcu eclipse/arm embedded gcc/bin/../lib/gcc/arm-none-eabi/7.3.1/../../../../arm-none-eabi/lib/thumb/v7e-m/fpv4-sp/hard\libnosys.a
END GROUP
START GROUP
LOAD c:/users/erth0001/user/gnuarmeclipse_photon/eclipse/gnu mcu eclipse/arm embedded gcc/bin/../lib/gcc/arm-none-eabi/7.3.1/thumb/v7e-m/fpv4-sp/hard\libgcc.a
LOAD c:/users/erth0001/user/gnuarmeclipse_photon/eclipse/gnu mcu eclipse/arm embedded gcc/bin/../lib/gcc/arm-none-eabi/7.3.1/../../../../arm-none-eabi/lib/thumb/v7e-m/fpv4-sp/hard\libc_nano.a
LOAD c:/users/erth0001/user/gnuarmeclipse_photon/eclipse/gnu mcu eclipse/arm embedded gcc/bin/../lib/gcc/arm-none-eabi/7.3.1/../../../../arm-none-eabi/lib/thumb/v7e-m/fpv4-sp/hard\libnosys.a
END GROUP
START GROUP
LOAD c:/users/erth0001/user/gnuarmeclipse_photon/eclipse/gnu mcu eclipse/arm embedded gcc/bin/../lib/gcc/arm-none-eabi/7.3.1/thumb/v7e-m/fpv4-sp/hard\libgcc.a
LOAD c:/users/erth0001/user/gnuarmeclipse_photon/eclipse/gnu mcu eclipse/arm embedded gcc/bin/../lib/gcc/arm-none-eabi/7.3.1/../../../../arm-none-eabi/lib/thumb/v7e-m/fpv4-sp/hard\libc_nano.a
LOAD c:/users/erth0001/user/gnuarmeclipse_photon/eclipse/gnu mcu eclipse/arm embedded gcc/bin/../lib/gcc/arm-none-eabi/7.3.1/../../../../arm-none-eabi/lib/thumb/v7e-m/fpv4-sp/hard\librdimon_nano.a
END GROUP
START GROUP
LOAD c:/users/erth0001/user/gnuarmeclipse_photon/eclipse/gnu mcu eclipse/arm embedded gcc/bin/../lib/gcc/arm-none-eabi/7.3.1/thumb/v7e-m/fpv4-sp/hard\libgcc.a
LOAD c:/users/erth0001/user/gnuarmeclipse_photon/eclipse/gnu mcu eclipse/arm embedded gcc/bin/../lib/gcc/arm-none-eabi/7.3.1/../../../../arm-none-eabi/lib/thumb/v7e-m/fpv4-sp/hard\libc.a
END GROUP
                0x0000000020005e98                PROVIDE (__FM_stack = (__FM_region_start_ram + __FM_region_size_ram))
                [!provide]                        PROVIDE (__FM_stack_size = ((__FM_region_start_ram + __FM_region_size_ram) - _end))
                [!provide]                        PROVIDE (__FM_heap_start = _end)
                [!provide]                        PROVIDE (__FM_heap_end = (__FM_region_start_ram + __FM_region_size_ram))

.text           0x000000001ffd0000     0x5e8c
 CREATE_OBJECT_SYMBOLS
                0x000000001ffd0000                __FM_region_start_ram = .
 *(.FM.region-head.RAM)
                0x000000001ffd0000                __FM_interrupt_vector = __FM_interrupt_vector_cortex_m
 *(.FM.interrupt_vector)
 .FM.interrupt_vector
                0x000000001ffd0000      0x240 ./system/include/S6E2CCA/startup/startup_s6e2cc.o
                0x000000001ffd0000                __FM_interrupt_vector_cortex_m
                0x0000000000000001                ASSERT ((. != __FM_interrupt_vector_cortex_m), No interrupt vector)
 *(.RAM)
 *(.RAM.b)
                0x000000001ffd0240                __FM_reset = __FM_reset_cortex_m
 *(.FM.reset)
 .FM.reset      0x000000001ffd0240       0x70 ./system/include/S6E2CCA/startup/startup_s6e2cc.o
                0x000000001ffd0240                __FM_reset_cortex_m
                0x0000000000000001                ASSERT ((. != __FM_reset), No reset code)
 *(.text .text.* .gnu.linkonce.t.*)
 .text          0x000000001ffd02b0       0x14 ./system/include/S6E2CCA/startup/startup_s6e2cc.o
                0x000000001ffd02b0                NMI_Handler
                0x000000001ffd02b2                HardFault_Handler
                0x000000001ffd02b4                MemManage_Handler
                0x000000001ffd02b6                BusFault_Handler
                0x000000001ffd02b8                UsageFault_Handler
                0x000000001ffd02ba                SVC_Handler
                0x000000001ffd02bc                DebugMon_Handler
                0x000000001ffd02be                PendSV_Handler
                0x000000001ffd02c0                SysTick_Handler
                0x000000001ffd02c2                LVD_IRQHandler
                0x000000001ffd02c2                USB0_H_F_IRQHandler
                0x000000001ffd02c2                USB0_F_IRQHandler
                0x000000001ffd02c2                BT12_15_IRQHandler
                0x000000001ffd02c2                WC_IRQHandler
                0x000000001ffd02c2                DMAC7_IRQHandler
                0x000000001ffd02c2                MFT0_FRT_ZERO_IRQHandler
                0x000000001ffd02c2                DMAC6_IRQHandler
                0x000000001ffd02c2                BT0_IRQHandler
                0x000000001ffd02c2                MFS4_RX_IRQHandler
                0x000000001ffd02c2                BT2_IRQHandler
                0x000000001ffd02c2                DMAC4_IRQHandler
                0x000000001ffd02c2                BT6_IRQHandler
                0x000000001ffd02c2                MFT0_ICU_IRQHandler
                0x000000001ffd02c2                MFT2_WFG_DTIF_IRQHandler
                0x000000001ffd02c2                MFS6_TX_IRQHandler
                0x000000001ffd02c2                DMAC2_IRQHandler
                0x000000001ffd02c2                EXINT15_IRQHandler
                0x000000001ffd02c2                MFS8_TX_IRQHandler
                0x000000001ffd02c2                ETHER0_IRQHandler
                0x000000001ffd02c2                MFS3_RX_IRQHandler
                0x000000001ffd02c2                PPG08_10_12_IRQHandler
                0x000000001ffd02c2                MFS8_RX_IRQHandler
                0x000000001ffd02c2                ADC0_IRQHandler
                0x000000001ffd02c2                MFS9_RX_IRQHandler
                0x000000001ffd02c2                BT9_IRQHandler
                0x000000001ffd02c2                USB1_H_F_IRQHandler
                0x000000001ffd02c2                EXINT24_27_IRQHandler
                0x000000001ffd02c2                MFT2_ICU_IRQHandler
                0x000000001ffd02c2                MFS12_RX_IRQHandler
                0x000000001ffd02c2                BT7_IRQHandler
                0x000000001ffd02c2                PPG00_02_04_IRQHandler
                0x000000001ffd02c2                BT8_IRQHandler
                0x000000001ffd02c2                EXINT6_IRQHandler
                0x000000001ffd02c2                EXINT2_IRQHandler
                0x000000001ffd02c2                MFS14_TX_IRQHandler
                0x000000001ffd02c2                EXINT10_IRQHandler
                0x000000001ffd02c2                IRQ005SEL_IRQHandler
                0x000000001ffd02c2                ADC1_IRQHandler
                0x000000001ffd02c2                MFT2_OCU_IRQHandler
                0x000000001ffd02c2                MFT1_WFG_DTIF_IRQHandler
                0x000000001ffd02c2                MFS6_RX_IRQHandler
                0x000000001ffd02c2                MFS11_TX_IRQHandler
                0x000000001ffd02c2                EXINT0_IRQHandler
                0x000000001ffd02c2                BT10_IRQHandler
                0x000000001ffd02c2                RTC_IRQHandler
                0x000000001ffd02c2                MFS0_RX_IRQHandler
                0x000000001ffd02c2                TIM_IRQHandler
                0x000000001ffd02c2                QPRC1_IRQHandler
                0x000000001ffd02c2                BT3_IRQHandler
                0x000000001ffd02c2                MFS11_RX_IRQHandler
                0x000000001ffd02c2                MFS1_RX_IRQHandler
                0x000000001ffd02c2                DMAC3_IRQHandler
                0x000000001ffd02c2                EXINT13_IRQHandler
                0x000000001ffd02c2                IRQ004SEL_IRQHandler
                0x000000001ffd02c2                DSTC_IRQHandler
                0x000000001ffd02c2                BT1_IRQHandler
                0x000000001ffd02c2                IRQ007SEL_IRQHandler
                0x000000001ffd02c2                MFT0_FRT_PEAK_IRQHandler
                0x000000001ffd02c2                EXINT3_IRQHandler
                0x000000001ffd02c2                PPG16_18_20_IRQHandler
                0x000000001ffd02c2                Default_Handler
                0x000000001ffd02c2                MFS4_TX_IRQHandler
                0x000000001ffd02c2                MFS13_RX_IRQHandler
                0x000000001ffd02c2                MFS14_RX_IRQHandler
                0x000000001ffd02c2                IRQ010SEL_IRQHandler
                0x000000001ffd02c2                MFT1_FRT_ZERO_IRQHandler
                0x000000001ffd02c2                EXINT7_IRQHandler
                0x000000001ffd02c2                EXINT11_IRQHandler
                0x000000001ffd02c2                ADC2_IRQHandler
                0x000000001ffd02c2                MFT0_WFG_DTIF_IRQHandler
                0x000000001ffd02c2                EXINT20_23_IRQHandler
                0x000000001ffd02c2                MFS2_RX_IRQHandler
                0x000000001ffd02c2                MFT2_FRT_ZERO_IRQHandler
                0x000000001ffd02c2                EXINT28_31_IRQHandler
                0x000000001ffd02c2                IRQ009SEL_IRQHandler
                0x000000001ffd02c2                EXINT12_IRQHandler
                0x000000001ffd02c2                MFS7_TX_IRQHandler
                0x000000001ffd02c2                BT5_IRQHandler
                0x000000001ffd02c2                QPRC3_IRQHandler
                0x000000001ffd02c2                MFS13_TX_IRQHandler
                0x000000001ffd02c2                USB1_F_IRQHandler
                0x000000001ffd02c2                CAN1_CANFD0_IRQHandler
                0x000000001ffd02c2                IRQ003SEL_IRQHandler
                0x000000001ffd02c2                MFS5_TX_IRQHandler
                0x000000001ffd02c2                EXINT5_IRQHandler
                0x000000001ffd02c2                EXINT14_IRQHandler
                0x000000001ffd02c2                FLASHIF_IRQHandler
                0x000000001ffd02c2                DMAC0_IRQHandler
                0x000000001ffd02c2                QPRC0_IRQHandler
                0x000000001ffd02c2                MFS3_TX_IRQHandler
                0x000000001ffd02c2                EXINT4_IRQHandler
                0x000000001ffd02c2                CSV_IRQHandler
                0x000000001ffd02c2                MFS10_RX_IRQHandler
                0x000000001ffd02c2                DT_IRQHandler
                0x000000001ffd02c2                MFS1_TX_IRQHandler
                0x000000001ffd02c2                EXTBUS_ERR_IRQHandler
                0x000000001ffd02c2                DMAC1_IRQHandler
                0x000000001ffd02c2                CAN0_IRQHandler
                0x000000001ffd02c2                MFT1_ICU_IRQHandler
                0x000000001ffd02c2                MFS10_TX_IRQHandler
                0x000000001ffd02c2                IRQ008SEL_IRQHandler
                0x000000001ffd02c2                EXINT8_IRQHandler
                0x000000001ffd02c2                IRQ006SEL_IRQHandler
                0x000000001ffd02c2                MFS0_TX_IRQHandler
                0x000000001ffd02c2                EXINT1_IRQHandler
                0x000000001ffd02c2                HSSPI_IRQHandler
                0x000000001ffd02c2                QPRC2_IRQHandler
                0x000000001ffd02c2                MFT1_OCU_IRQHandler
                0x000000001ffd02c2                MFS9_TX_IRQHandler
                0x000000001ffd02c2                MFT1_FRT_PEAK_IRQHandler
                0x000000001ffd02c2                MFS7_RX_IRQHandler
                0x000000001ffd02c2                SD_IRQHandler
                0x000000001ffd02c2                BT4_IRQHandler
                0x000000001ffd02c2                DMAC5_IRQHandler
                0x000000001ffd02c2                BT11_IRQHandler
                0x000000001ffd02c2                MFS15_TX_IRQHandler
                0x000000001ffd02c2                EXINT9_IRQHandler
                0x000000001ffd02c2                SWDT_IRQHandler
                0x000000001ffd02c2                MFS12_TX_IRQHandler
                0x000000001ffd02c2                EXINT16_19_IRQHandler
                0x000000001ffd02c2                MFS15_RX_IRQHandler
                0x000000001ffd02c2                MFT0_OCU_IRQHandler
                0x000000001ffd02c2                MFT2_FRT_PEAK_IRQHandler
                0x000000001ffd02c2                MFS2_TX_IRQHandler
                0x000000001ffd02c2                MFS5_RX_IRQHandler
 .text.Dstc_ReadHwintBit
                0x000000001ffd02c4       0x4c ./system/include/S6E2CCA/PDL/dstc.o
                0x000000001ffd02c4                Dstc_ReadHwintBit
 .text.Dstc_SetHwintclrBit
                0x000000001ffd0310       0x44 ./system/include/S6E2CCA/PDL/dstc.o
                0x000000001ffd0310                Dstc_SetHwintclrBit
 .text.Dstc_I2sIrqHandler
                0x000000001ffd0354       0x58 ./system/include/S6E2CCA/PDL/dstc.o
                0x000000001ffd0354                Dstc_I2sIrqHandler
 .text.I2sIrqHandler
                0x000000001ffd03ac      0x1a2 ./system/include/S6E2CCA/PDL/i2s.o
                0x000000001ffd03ac                I2sIrqHandler
 *fill*         0x000000001ffd054e        0x2 
 .text.PCRC_I2S0_1_IRQHandler
                0x000000001ffd0550       0x34 ./system/include/S6E2CCA/PDL/interrupts_fm4_type_b.o
                0x000000001ffd0550                PCRC_I2S0_1_IRQHandler
 .text.DSTC_HW_IRQHandler
                0x000000001ffd0584       0x2c ./system/include/S6E2CCA/PDL/interrupts_fm4_type_b.o
                0x000000001ffd0584                DSTC_HW_IRQHandler
 .text.SystemInit
                0x000000001ffd05b0      0x140 ./system/include/S6E2CCA/PDL/system_s6e2cc.o
                0x000000001ffd05b0                SystemInit
 .text.main     0x000000001ffd06f0       0x14 ./src/Examples/Semihosting.o
                0x000000001ffd06f0                main
 .text          0x000000001ffd0704       0xa0 c:/users/erth0001/user/gnuarmeclipse_photon/eclipse/gnu mcu eclipse/arm embedded gcc/bin/../lib/gcc/arm-none-eabi/7.3.1/thumb/v7e-m/fpv4-sp/hard\libgcc.a(_arm_truncdfsf2.o)
                0x000000001ffd0704                __truncdfsf2
                0x000000001ffd0704                __aeabi_d2f
 .text.memset   0x000000001ffd07a4       0x10 c:/users/erth0001/user/gnuarmeclipse_photon/eclipse/gnu mcu eclipse/arm embedded gcc/bin/../lib/gcc/arm-none-eabi/7.3.1/../../../../arm-none-eabi/lib/thumb/v7e-m/fpv4-sp/hard\libg_nano.a(lib_a-memset.o)
                0x000000001ffd07a4                memset
 .text.__cvt    0x000000001ffd07b4       0xc2 c:/users/erth0001/user/gnuarmeclipse_photon/eclipse/gnu mcu eclipse/arm embedded gcc/bin/../lib/gcc/arm-none-eabi/7.3.1/../../../../arm-none-eabi/lib/thumb/v7e-m/fpv4-sp/hard\libg_nano.a(lib_a-nano-vfprintf_float.o)
                0x000000001ffd07b4                __cvt
 .text.__exponent
                0x000000001ffd0876       0x66 c:/users/erth0001/user/gnuarmeclipse_photon/eclipse/gnu mcu eclipse/arm embedded gcc/bin/../lib/gcc/arm-none-eabi/7.3.1/../../../../arm-none-eabi/lib/thumb/v7e-m/fpv4-sp/hard\libg_nano.a(lib_a-nano-vfprintf_float.o)
                0x000000001ffd0876                __exponent
 .text._printf_float
                0x000000001ffd08dc      0x480 c:/users/erth0001/user/gnuarmeclipse_photon/eclipse/gnu mcu eclipse/arm embedded gcc/bin/../lib/gcc/arm-none-eabi/7.3.1/../../../../arm-none-eabi/lib/thumb/v7e-m/fpv4-sp/hard\libg_nano.a(lib_a-nano-vfprintf_float.o)
                0x000000001ffd08dc                _printf_float
 .text._printf_common
                0x000000001ffd0d5c       0xea c:/users/erth0001/user/gnuarmeclipse_photon/eclipse/gnu mcu eclipse/arm embedded gcc/bin/../lib/gcc/arm-none-eabi/7.3.1/../../../../arm-none-eabi/lib/thumb/v7e-m/fpv4-sp/hard\libg_nano.a(lib_a-nano-vfprintf_i.o)
                0x000000001ffd0d5c                _printf_common
 *fill*         0x000000001ffd0e46        0x2 
 .text._printf_i
                0x000000001ffd0e48      0x224 c:/users/erth0001/user/gnuarmeclipse_photon/eclipse/gnu mcu eclipse/arm embedded gcc/bin/../lib/gcc/arm-none-eabi/7.3.1/../../../../arm-none-eabi/lib/thumb/v7e-m/fpv4-sp/hard\libg_nano.a(lib_a-nano-vfprintf_i.o)
                0x000000001ffd0e48                _printf_i
 .text._scanf_float
                0x000000001ffd106c      0x3c4 c:/users/erth0001/user/gnuarmeclipse_photon/eclipse/gnu mcu eclipse/arm embedded gcc/bin/../lib/gcc/arm-none-eabi/7.3.1/../../../../arm-none-eabi/lib/thumb/v7e-m/fpv4-sp/hard\libg_nano.a(lib_a-nano-vfscanf_float.o)
                0x000000001ffd106c                _scanf_float
 .text.printf   0x000000001ffd1430       0x30 c:/users/erth0001/user/gnuarmeclipse_photon/eclipse/gnu mcu eclipse/arm embedded gcc/bin/../lib/gcc/arm-none-eabi/7.3.1/../../../../arm-none-eabi/lib/thumb/v7e-m/fpv4-sp/hard\libg_nano.a(lib_a-printf.o)
                0x000000001ffd1430                iprintf
                0x000000001ffd1430                printf
 .text.nanf     0x000000001ffd1460        0xc c:/users/erth0001/user/gnuarmeclipse_photon/eclipse/gnu mcu eclipse/arm embedded gcc/bin/../lib/gcc/arm-none-eabi/7.3.1/../../../../arm-none-eabi/lib/thumb/v7e-m/fpv4-sp/hard\libg_nano.a(lib_a-sf_nan.o)
                0x000000001ffd1460                nanf
 .text.sprintf  0x000000001ffd146c       0x40 c:/users/erth0001/user/gnuarmeclipse_photon/eclipse/gnu mcu eclipse/arm embedded gcc/bin/../lib/gcc/arm-none-eabi/7.3.1/../../../../arm-none-eabi/lib/thumb/v7e-m/fpv4-sp/hard\libg_nano.a(lib_a-sprintf.o)
                0x000000001ffd146c                siprintf
                0x000000001ffd146c                sprintf
 .text          0x000000001ffd14ac       0x10 c:/users/erth0001/user/gnuarmeclipse_photon/eclipse/gnu mcu eclipse/arm embedded gcc/bin/../lib/gcc/arm-none-eabi/7.3.1/../../../../arm-none-eabi/lib/thumb/v7e-m/fpv4-sp/hard\libg_nano.a(lib_a-strlen.o)
                0x000000001ffd14ac                strlen
 .text.unlikely.sulp
                0x000000001ffd14bc       0x38 c:/users/erth0001/user/gnuarmeclipse_photon/eclipse/gnu mcu eclipse/arm embedded gcc/bin/../lib/gcc/arm-none-eabi/7.3.1/../../../../arm-none-eabi/lib/thumb/v7e-m/fpv4-sp/hard\libg_nano.a(lib_a-strtod.o)
 *fill*         0x000000001ffd14f4        0x4 
 .text._strtod_l
                0x000000001ffd14f8      0xbe8 c:/users/erth0001/user/gnuarmeclipse_photon/eclipse/gnu mcu eclipse/arm embedded gcc/bin/../lib/gcc/arm-none-eabi/7.3.1/../../../../arm-none-eabi/lib/thumb/v7e-m/fpv4-sp/hard\libg_nano.a(lib_a-strtod.o)
                0x000000001ffd14f8                _strtod_l
 .text._strtod_r
                0x000000001ffd20e0       0x20 c:/users/erth0001/user/gnuarmeclipse_photon/eclipse/gnu mcu eclipse/arm embedded gcc/bin/../lib/gcc/arm-none-eabi/7.3.1/../../../../arm-none-eabi/lib/thumb/v7e-m/fpv4-sp/hard\libg_nano.a(lib_a-strtod.o)
                0x000000001ffd20e0                _strtod_r
 .text._strtol_l.isra.0
                0x000000001ffd2100       0xf6 c:/users/erth0001/user/gnuarmeclipse_photon/eclipse/gnu mcu eclipse/arm embedded gcc/bin/../lib/gcc/arm-none-eabi/7.3.1/../../../../arm-none-eabi/lib/thumb/v7e-m/fpv4-sp/hard\libg_nano.a(lib_a-strtol.o)
 *fill*         0x000000001ffd21f6        0x2 
 .text._strtol_r
                0x000000001ffd21f8       0x24 c:/users/erth0001/user/gnuarmeclipse_photon/eclipse/gnu mcu eclipse/arm embedded gcc/bin/../lib/gcc/arm-none-eabi/7.3.1/../../../../arm-none-eabi/lib/thumb/v7e-m/fpv4-sp/hard\libg_nano.a(lib_a-strtol.o)
                0x000000001ffd21f8                _strtol_r
 .text.quorem   0x000000001ffd221c      0x118 c:/users/erth0001/user/gnuarmeclipse_photon/eclipse/gnu mcu eclipse/arm embedded gcc/bin/../lib/gcc/arm-none-eabi/7.3.1/../../../../arm-none-eabi/lib/thumb/v7e-m/fpv4-sp/hard\libg_nano.a(lib_a-dtoa.o)
 *fill*         0x000000001ffd2334        0x4 
 .text._dtoa_r  0x000000001ffd2338      0xb70 c:/users/erth0001/user/gnuarmeclipse_photon/eclipse/gnu mcu eclipse/arm embedded gcc/bin/../lib/gcc/arm-none-eabi/7.3.1/../../../../arm-none-eabi/lib/thumb/v7e-m/fpv4-sp/hard\libg_nano.a(lib_a-dtoa.o)
                0x000000001ffd2338                _dtoa_r
 .text.std      0x000000001ffd2ea8       0x48 c:/users/erth0001/user/gnuarmeclipse_photon/eclipse/gnu mcu eclipse/arm embedded gcc/bin/../lib/gcc/arm-none-eabi/7.3.1/../../../../arm-none-eabi/lib/thumb/v7e-m/fpv4-sp/hard\libg_nano.a(lib_a-findfp.o)
 .text._cleanup_r
                0x000000001ffd2ef0        0xc c:/users/erth0001/user/gnuarmeclipse_photon/eclipse/gnu mcu eclipse/arm embedded gcc/bin/../lib/gcc/arm-none-eabi/7.3.1/../../../../arm-none-eabi/lib/thumb/v7e-m/fpv4-sp/hard\libg_nano.a(lib_a-findfp.o)
                0x000000001ffd2ef0                _cleanup_r
 .text.__sfmoreglue
                0x000000001ffd2efc       0x2c c:/users/erth0001/user/gnuarmeclipse_photon/eclipse/gnu mcu eclipse/arm embedded gcc/bin/../lib/gcc/arm-none-eabi/7.3.1/../../../../arm-none-eabi/lib/thumb/v7e-m/fpv4-sp/hard\libg_nano.a(lib_a-findfp.o)
                0x000000001ffd2efc                __sfmoreglue
 .text.__sinit  0x000000001ffd2f28       0x60 c:/users/erth0001/user/gnuarmeclipse_photon/eclipse/gnu mcu eclipse/arm embedded gcc/bin/../lib/gcc/arm-none-eabi/7.3.1/../../../../arm-none-eabi/lib/thumb/v7e-m/fpv4-sp/hard\libg_nano.a(lib_a-findfp.o)
                0x000000001ffd2f28                __sinit
 .text.__sfp    0x000000001ffd2f88       0x78 c:/users/erth0001/user/gnuarmeclipse_photon/eclipse/gnu mcu eclipse/arm embedded gcc/bin/../lib/gcc/arm-none-eabi/7.3.1/../../../../arm-none-eabi/lib/thumb/v7e-m/fpv4-sp/hard\libg_nano.a(lib_a-findfp.o)
                0x000000001ffd2f88                __sfp
 .text._fwalk_reent
                0x000000001ffd3000       0x3c c:/users/erth0001/user/gnuarmeclipse_photon/eclipse/gnu mcu eclipse/arm embedded gcc/bin/../lib/gcc/arm-none-eabi/7.3.1/../../../../arm-none-eabi/lib/thumb/v7e-m/fpv4-sp/hard\libg_nano.a(lib_a-fwalk.o)
                0x000000001ffd3000                _fwalk_reent
 .text.rshift   0x000000001ffd303c       0x74 c:/users/erth0001/user/gnuarmeclipse_photon/eclipse/gnu mcu eclipse/arm embedded gcc/bin/../lib/gcc/arm-none-eabi/7.3.1/../../../../arm-none-eabi/lib/thumb/v7e-m/fpv4-sp/hard\libg_nano.a(lib_a-gdtoa-gethex.o)
 .text.__hexdig_fun
                0x000000001ffd30b0       0x2a c:/users/erth0001/user/gnuarmeclipse_photon/eclipse/gnu mcu eclipse/arm embedded gcc/bin/../lib/gcc/arm-none-eabi/7.3.1/../../../../arm-none-eabi/lib/thumb/v7e-m/fpv4-sp/hard\libg_nano.a(lib_a-gdtoa-gethex.o)
                0x000000001ffd30b0                __hexdig_fun
 .text.__gethex
                0x000000001ffd30da      0x442 c:/users/erth0001/user/gnuarmeclipse_photon/eclipse/gnu mcu eclipse/arm embedded gcc/bin/../lib/gcc/arm-none-eabi/7.3.1/../../../../arm-none-eabi/lib/thumb/v7e-m/fpv4-sp/hard\libg_nano.a(lib_a-gdtoa-gethex.o)
                0x000000001ffd30da                __gethex
 .text.L_shift  0x000000001ffd351c       0x24 c:/users/erth0001/user/gnuarmeclipse_photon/eclipse/gnu mcu eclipse/arm embedded gcc/bin/../lib/gcc/arm-none-eabi/7.3.1/../../../../arm-none-eabi/lib/thumb/v7e-m/fpv4-sp/hard\libg_nano.a(lib_a-gdtoa-hexnan.o)
 .text.__match  0x000000001ffd3540       0x28 c:/users/erth0001/user/gnuarmeclipse_photon/eclipse/gnu mcu eclipse/arm embedded gcc/bin/../lib/gcc/arm-none-eabi/7.3.1/../../../../arm-none-eabi/lib/thumb/v7e-m/fpv4-sp/hard\libg_nano.a(lib_a-gdtoa-hexnan.o)
                0x000000001ffd3540                __match
 .text.__hexnan
                0x000000001ffd3568      0x120 c:/users/erth0001/user/gnuarmeclipse_photon/eclipse/gnu mcu eclipse/arm embedded gcc/bin/../lib/gcc/arm-none-eabi/7.3.1/../../../../arm-none-eabi/lib/thumb/v7e-m/fpv4-sp/hard\libg_nano.a(lib_a-gdtoa-hexnan.o)
                0x000000001ffd3568                __hexnan
 .text.__locale_ctype_ptr_l
                0x000000001ffd3688        0x6 c:/users/erth0001/user/gnuarmeclipse_photon/eclipse/gnu mcu eclipse/arm embedded gcc/bin/../lib/gcc/arm-none-eabi/7.3.1/../../../../arm-none-eabi/lib/thumb/v7e-m/fpv4-sp/hard\libg_nano.a(lib_a-locale.o)
                0x000000001ffd3688                __locale_ctype_ptr_l
 .text.__localeconv_l
                0x000000001ffd368e        0x4 c:/users/erth0001/user/gnuarmeclipse_photon/eclipse/gnu mcu eclipse/arm embedded gcc/bin/../lib/gcc/arm-none-eabi/7.3.1/../../../../arm-none-eabi/lib/thumb/v7e-m/fpv4-sp/hard\libg_nano.a(lib_a-localeconv.o)
                0x000000001ffd368e                __localeconv_l
 *fill*         0x000000001ffd3692        0x2 
 .text._localeconv_r
                0x000000001ffd3694       0x1c c:/users/erth0001/user/gnuarmeclipse_photon/eclipse/gnu mcu eclipse/arm embedded gcc/bin/../lib/gcc/arm-none-eabi/7.3.1/../../../../arm-none-eabi/lib/thumb/v7e-m/fpv4-sp/hard\libg_nano.a(lib_a-localeconv.o)
                0x000000001ffd3694                _localeconv_r
 .text.malloc   0x000000001ffd36b0       0x10 c:/users/erth0001/user/gnuarmeclipse_photon/eclipse/gnu mcu eclipse/arm embedded gcc/bin/../lib/gcc/arm-none-eabi/7.3.1/../../../../arm-none-eabi/lib/thumb/v7e-m/fpv4-sp/hard\libg_nano.a(lib_a-malloc.o)
                0x000000001ffd36b0                malloc
 .text.__ascii_mbtowc
                0x000000001ffd36c0       0x24 c:/users/erth0001/user/gnuarmeclipse_photon/eclipse/gnu mcu eclipse/arm embedded gcc/bin/../lib/gcc/arm-none-eabi/7.3.1/../../../../arm-none-eabi/lib/thumb/v7e-m/fpv4-sp/hard\libg_nano.a(lib_a-mbtowc_r.o)
                0x000000001ffd36c0                __ascii_mbtowc
 *fill*         0x000000001ffd36e4        0xc 
 .text          0x000000001ffd36f0       0xa0 c:/users/erth0001/user/gnuarmeclipse_photon/eclipse/gnu mcu eclipse/arm embedded gcc/bin/../lib/gcc/arm-none-eabi/7.3.1/../../../../arm-none-eabi/lib/thumb/v7e-m/fpv4-sp/hard\libg_nano.a(lib_a-memchr.o)
                0x000000001ffd36f0                memchr
 .text.memcpy   0x000000001ffd3790       0x16 c:/users/erth0001/user/gnuarmeclipse_photon/eclipse/gnu mcu eclipse/arm embedded gcc/bin/../lib/gcc/arm-none-eabi/7.3.1/../../../../arm-none-eabi/lib/thumb/v7e-m/fpv4-sp/hard\libg_nano.a(lib_a-memcpy-stub.o)
                0x000000001ffd3790                memcpy
 .text._Balloc  0x000000001ffd37a6       0x68 c:/users/erth0001/user/gnuarmeclipse_photon/eclipse/gnu mcu eclipse/arm embedded gcc/bin/../lib/gcc/arm-none-eabi/7.3.1/../../../../arm-none-eabi/lib/thumb/v7e-m/fpv4-sp/hard\libg_nano.a(lib_a-mprec.o)
                0x000000001ffd37a6                _Balloc
 .text._Bfree   0x000000001ffd380e       0x2e c:/users/erth0001/user/gnuarmeclipse_photon/eclipse/gnu mcu eclipse/arm embedded gcc/bin/../lib/gcc/arm-none-eabi/7.3.1/../../../../arm-none-eabi/lib/thumb/v7e-m/fpv4-sp/hard\libg_nano.a(lib_a-mprec.o)
                0x000000001ffd380e                _Bfree
 .text.__multadd
                0x000000001ffd383c       0x76 c:/users/erth0001/user/gnuarmeclipse_photon/eclipse/gnu mcu eclipse/arm embedded gcc/bin/../lib/gcc/arm-none-eabi/7.3.1/../../../../arm-none-eabi/lib/thumb/v7e-m/fpv4-sp/hard\libg_nano.a(lib_a-mprec.o)
                0x000000001ffd383c                __multadd
 .text.__s2b    0x000000001ffd38b2       0x7c c:/users/erth0001/user/gnuarmeclipse_photon/eclipse/gnu mcu eclipse/arm embedded gcc/bin/../lib/gcc/arm-none-eabi/7.3.1/../../../../arm-none-eabi/lib/thumb/v7e-m/fpv4-sp/hard\libg_nano.a(lib_a-mprec.o)
                0x000000001ffd38b2                __s2b
 .text.__hi0bits
                0x000000001ffd392e       0x3e c:/users/erth0001/user/gnuarmeclipse_photon/eclipse/gnu mcu eclipse/arm embedded gcc/bin/../lib/gcc/arm-none-eabi/7.3.1/../../../../arm-none-eabi/lib/thumb/v7e-m/fpv4-sp/hard\libg_nano.a(lib_a-mprec.o)
                0x000000001ffd392e                __hi0bits
 .text.__lo0bits
                0x000000001ffd396c       0x5e c:/users/erth0001/user/gnuarmeclipse_photon/eclipse/gnu mcu eclipse/arm embedded gcc/bin/../lib/gcc/arm-none-eabi/7.3.1/../../../../arm-none-eabi/lib/thumb/v7e-m/fpv4-sp/hard\libg_nano.a(lib_a-mprec.o)
                0x000000001ffd396c                __lo0bits
 .text.__i2b    0x000000001ffd39ca       0x12 c:/users/erth0001/user/gnuarmeclipse_photon/eclipse/gnu mcu eclipse/arm embedded gcc/bin/../lib/gcc/arm-none-eabi/7.3.1/../../../../arm-none-eabi/lib/thumb/v7e-m/fpv4-sp/hard\libg_nano.a(lib_a-mprec.o)
                0x000000001ffd39ca                __i2b
 .text.__multiply
                0x000000001ffd39dc      0x12c c:/users/erth0001/user/gnuarmeclipse_photon/eclipse/gnu mcu eclipse/arm embedded gcc/bin/../lib/gcc/arm-none-eabi/7.3.1/../../../../arm-none-eabi/lib/thumb/v7e-m/fpv4-sp/hard\libg_nano.a(lib_a-mprec.o)
                0x000000001ffd39dc                __multiply
 .text.__pow5mult
                0x000000001ffd3b08       0x9c c:/users/erth0001/user/gnuarmeclipse_photon/eclipse/gnu mcu eclipse/arm embedded gcc/bin/../lib/gcc/arm-none-eabi/7.3.1/../../../../arm-none-eabi/lib/thumb/v7e-m/fpv4-sp/hard\libg_nano.a(lib_a-mprec.o)
                0x000000001ffd3b08                __pow5mult
 .text.__lshift
                0x000000001ffd3ba4       0xa8 c:/users/erth0001/user/gnuarmeclipse_photon/eclipse/gnu mcu eclipse/arm embedded gcc/bin/../lib/gcc/arm-none-eabi/7.3.1/../../../../arm-none-eabi/lib/thumb/v7e-m/fpv4-sp/hard\libg_nano.a(lib_a-mprec.o)
                0x000000001ffd3ba4                __lshift
 .text.__mcmp   0x000000001ffd3c4c       0x34 c:/users/erth0001/user/gnuarmeclipse_photon/eclipse/gnu mcu eclipse/arm embedded gcc/bin/../lib/gcc/arm-none-eabi/7.3.1/../../../../arm-none-eabi/lib/thumb/v7e-m/fpv4-sp/hard\libg_nano.a(lib_a-mprec.o)
                0x000000001ffd3c4c                __mcmp
 .text.__mdiff  0x000000001ffd3c80       0xba c:/users/erth0001/user/gnuarmeclipse_photon/eclipse/gnu mcu eclipse/arm embedded gcc/bin/../lib/gcc/arm-none-eabi/7.3.1/../../../../arm-none-eabi/lib/thumb/v7e-m/fpv4-sp/hard\libg_nano.a(lib_a-mprec.o)
                0x000000001ffd3c80                __mdiff
 *fill*         0x000000001ffd3d3a        0x2 
 .text.__ulp    0x000000001ffd3d3c       0x50 c:/users/erth0001/user/gnuarmeclipse_photon/eclipse/gnu mcu eclipse/arm embedded gcc/bin/../lib/gcc/arm-none-eabi/7.3.1/../../../../arm-none-eabi/lib/thumb/v7e-m/fpv4-sp/hard\libg_nano.a(lib_a-mprec.o)
                0x000000001ffd3d3c                __ulp
 .text.__b2d    0x000000001ffd3d8c       0x9c c:/users/erth0001/user/gnuarmeclipse_photon/eclipse/gnu mcu eclipse/arm embedded gcc/bin/../lib/gcc/arm-none-eabi/7.3.1/../../../../arm-none-eabi/lib/thumb/v7e-m/fpv4-sp/hard\libg_nano.a(lib_a-mprec.o)
                0x000000001ffd3d8c                __b2d
 .text.__d2b    0x000000001ffd3e28       0x9e c:/users/erth0001/user/gnuarmeclipse_photon/eclipse/gnu mcu eclipse/arm embedded gcc/bin/../lib/gcc/arm-none-eabi/7.3.1/../../../../arm-none-eabi/lib/thumb/v7e-m/fpv4-sp/hard\libg_nano.a(lib_a-mprec.o)
                0x000000001ffd3e28                __d2b
 .text.__ratio  0x000000001ffd3ec6       0x66 c:/users/erth0001/user/gnuarmeclipse_photon/eclipse/gnu mcu eclipse/arm embedded gcc/bin/../lib/gcc/arm-none-eabi/7.3.1/../../../../arm-none-eabi/lib/thumb/v7e-m/fpv4-sp/hard\libg_nano.a(lib_a-mprec.o)
                0x000000001ffd3ec6                __ratio
 .text.__copybits
                0x000000001ffd3f2c       0x34 c:/users/erth0001/user/gnuarmeclipse_photon/eclipse/gnu mcu eclipse/arm embedded gcc/bin/../lib/gcc/arm-none-eabi/7.3.1/../../../../arm-none-eabi/lib/thumb/v7e-m/fpv4-sp/hard\libg_nano.a(lib_a-mprec.o)
                0x000000001ffd3f2c                __copybits
 .text.__any_on
                0x000000001ffd3f60       0x42 c:/users/erth0001/user/gnuarmeclipse_photon/eclipse/gnu mcu eclipse/arm embedded gcc/bin/../lib/gcc/arm-none-eabi/7.3.1/../../../../arm-none-eabi/lib/thumb/v7e-m/fpv4-sp/hard\libg_nano.a(lib_a-mprec.o)
                0x000000001ffd3f60                __any_on
 .text._calloc_r
                0x000000001ffd3fa2       0x1c c:/users/erth0001/user/gnuarmeclipse_photon/eclipse/gnu mcu eclipse/arm embedded gcc/bin/../lib/gcc/arm-none-eabi/7.3.1/../../../../arm-none-eabi/lib/thumb/v7e-m/fpv4-sp/hard\libg_nano.a(lib_a-nano-callocr.o)
                0x000000001ffd3fa2                _calloc_r
 *fill*         0x000000001ffd3fbe        0x2 
 .text._free_r  0x000000001ffd3fc0       0x9c c:/users/erth0001/user/gnuarmeclipse_photon/eclipse/gnu mcu eclipse/arm embedded gcc/bin/../lib/gcc/arm-none-eabi/7.3.1/../../../../arm-none-eabi/lib/thumb/v7e-m/fpv4-sp/hard\libg_nano.a(lib_a-nano-freer.o)
                0x000000001ffd3fc0                _free_r
 .text._malloc_r
                0x000000001ffd405c       0xb4 c:/users/erth0001/user/gnuarmeclipse_photon/eclipse/gnu mcu eclipse/arm embedded gcc/bin/../lib/gcc/arm-none-eabi/7.3.1/../../../../arm-none-eabi/lib/thumb/v7e-m/fpv4-sp/hard\libg_nano.a(lib_a-nano-mallocr.o)
                0x000000001ffd405c                _malloc_r
 .text.__ssputs_r
                0x000000001ffd4110       0xb4 c:/users/erth0001/user/gnuarmeclipse_photon/eclipse/gnu mcu eclipse/arm embedded gcc/bin/../lib/gcc/arm-none-eabi/7.3.1/../../../../arm-none-eabi/lib/thumb/v7e-m/fpv4-sp/hard\libg_nano.a(lib_a-nano-svfprintf.o)
                0x000000001ffd4110                __ssputs_r
 .text._svfprintf_r
                0x000000001ffd41c4      0x1f0 c:/users/erth0001/user/gnuarmeclipse_photon/eclipse/gnu mcu eclipse/arm embedded gcc/bin/../lib/gcc/arm-none-eabi/7.3.1/../../../../arm-none-eabi/lib/thumb/v7e-m/fpv4-sp/hard\libg_nano.a(lib_a-nano-svfprintf.o)
                0x000000001ffd41c4                _svfiprintf_r
                0x000000001ffd41c4                _svfprintf_r
 .text.__sfputc_r
                0x000000001ffd43b4       0x2e c:/users/erth0001/user/gnuarmeclipse_photon/eclipse/gnu mcu eclipse/arm embedded gcc/bin/../lib/gcc/arm-none-eabi/7.3.1/../../../../arm-none-eabi/lib/thumb/v7e-m/fpv4-sp/hard\libg_nano.a(lib_a-nano-vfprintf.o)
 .text.__sfputs_r
                0x000000001ffd43e2       0x24 c:/users/erth0001/user/gnuarmeclipse_photon/eclipse/gnu mcu eclipse/arm embedded gcc/bin/../lib/gcc/arm-none-eabi/7.3.1/../../../../arm-none-eabi/lib/thumb/v7e-m/fpv4-sp/hard\libg_nano.a(lib_a-nano-vfprintf.o)
                0x000000001ffd43e2                __sfputs_r
 *fill*         0x000000001ffd4406        0x2 
 .text._vfprintf_r
                0x000000001ffd4408      0x22c c:/users/erth0001/user/gnuarmeclipse_photon/eclipse/gnu mcu eclipse/arm embedded gcc/bin/../lib/gcc/arm-none-eabi/7.3.1/../../../../arm-none-eabi/lib/thumb/v7e-m/fpv4-sp/hard\libg_nano.a(lib_a-nano-vfprintf.o)
                0x000000001ffd4408                _vfprintf_r
                0x000000001ffd4408                _vfiprintf_r
 .text._sbrk_r  0x000000001ffd4634       0x20 c:/users/erth0001/user/gnuarmeclipse_photon/eclipse/gnu mcu eclipse/arm embedded gcc/bin/../lib/gcc/arm-none-eabi/7.3.1/../../../../arm-none-eabi/lib/thumb/v7e-m/fpv4-sp/hard\libg_nano.a(lib_a-sbrkr.o)
                0x000000001ffd4634                _sbrk_r
 .text.__sread  0x000000001ffd4654       0x22 c:/users/erth0001/user/gnuarmeclipse_photon/eclipse/gnu mcu eclipse/arm embedded gcc/bin/../lib/gcc/arm-none-eabi/7.3.1/../../../../arm-none-eabi/lib/thumb/v7e-m/fpv4-sp/hard\libg_nano.a(lib_a-stdio.o)
                0x000000001ffd4654                __sread
 .text.__swrite
                0x000000001ffd4676       0x38 c:/users/erth0001/user/gnuarmeclipse_photon/eclipse/gnu mcu eclipse/arm embedded gcc/bin/../lib/gcc/arm-none-eabi/7.3.1/../../../../arm-none-eabi/lib/thumb/v7e-m/fpv4-sp/hard\libg_nano.a(lib_a-stdio.o)
                0x000000001ffd4676                __swrite
 .text.__sseek  0x000000001ffd46ae       0x24 c:/users/erth0001/user/gnuarmeclipse_photon/eclipse/gnu mcu eclipse/arm embedded gcc/bin/../lib/gcc/arm-none-eabi/7.3.1/../../../../arm-none-eabi/lib/thumb/v7e-m/fpv4-sp/hard\libg_nano.a(lib_a-stdio.o)
                0x000000001ffd46ae                __sseek
 .text.__sclose
                0x000000001ffd46d2        0x8 c:/users/erth0001/user/gnuarmeclipse_photon/eclipse/gnu mcu eclipse/arm embedded gcc/bin/../lib/gcc/arm-none-eabi/7.3.1/../../../../arm-none-eabi/lib/thumb/v7e-m/fpv4-sp/hard\libg_nano.a(lib_a-stdio.o)
                0x000000001ffd46d2                __sclose
 .text.strncmp  0x000000001ffd46da       0x24 c:/users/erth0001/user/gnuarmeclipse_photon/eclipse/gnu mcu eclipse/arm embedded gcc/bin/../lib/gcc/arm-none-eabi/7.3.1/../../../../arm-none-eabi/lib/thumb/v7e-m/fpv4-sp/hard\libg_nano.a(lib_a-strncmp.o)
                0x000000001ffd46da                strncmp
 *fill*         0x000000001ffd46fe        0x2 
 .text.__swbuf_r
                0x000000001ffd4700       0xa4 c:/users/erth0001/user/gnuarmeclipse_photon/eclipse/gnu mcu eclipse/arm embedded gcc/bin/../lib/gcc/arm-none-eabi/7.3.1/../../../../arm-none-eabi/lib/thumb/v7e-m/fpv4-sp/hard\libg_nano.a(lib_a-wbuf.o)
                0x000000001ffd4700                __swbuf_r
 .text.__ascii_wctomb
                0x000000001ffd47a4       0x1a c:/users/erth0001/user/gnuarmeclipse_photon/eclipse/gnu mcu eclipse/arm embedded gcc/bin/../lib/gcc/arm-none-eabi/7.3.1/../../../../arm-none-eabi/lib/thumb/v7e-m/fpv4-sp/hard\libg_nano.a(lib_a-wctomb_r.o)
                0x000000001ffd47a4                __ascii_wctomb
 *fill*         0x000000001ffd47be        0x2 
 .text._write_r
                0x000000001ffd47c0       0x24 c:/users/erth0001/user/gnuarmeclipse_photon/eclipse/gnu mcu eclipse/arm embedded gcc/bin/../lib/gcc/arm-none-eabi/7.3.1/../../../../arm-none-eabi/lib/thumb/v7e-m/fpv4-sp/hard\libg_nano.a(lib_a-writer.o)
                0x000000001ffd47c0                _write_r
 .text.__swsetup_r
                0x000000001ffd47e4       0xdc c:/users/erth0001/user/gnuarmeclipse_photon/eclipse/gnu mcu eclipse/arm embedded gcc/bin/../lib/gcc/arm-none-eabi/7.3.1/../../../../arm-none-eabi/lib/thumb/v7e-m/fpv4-sp/hard\libg_nano.a(lib_a-wsetup.o)
                0x000000001ffd47e4                __swsetup_r
 .text._close_r
                0x000000001ffd48c0       0x20 c:/users/erth0001/user/gnuarmeclipse_photon/eclipse/gnu mcu eclipse/arm embedded gcc/bin/../lib/gcc/arm-none-eabi/7.3.1/../../../../arm-none-eabi/lib/thumb/v7e-m/fpv4-sp/hard\libg_nano.a(lib_a-closer.o)
                0x000000001ffd48c0                _close_r
 .text.__sflush_r
                0x000000001ffd48e0      0x10c c:/users/erth0001/user/gnuarmeclipse_photon/eclipse/gnu mcu eclipse/arm embedded gcc/bin/../lib/gcc/arm-none-eabi/7.3.1/../../../../arm-none-eabi/lib/thumb/v7e-m/fpv4-sp/hard\libg_nano.a(lib_a-fflush.o)
                0x000000001ffd48e0                __sflush_r
 .text._fflush_r
                0x000000001ffd49ec       0x54 c:/users/erth0001/user/gnuarmeclipse_photon/eclipse/gnu mcu eclipse/arm embedded gcc/bin/../lib/gcc/arm-none-eabi/7.3.1/../../../../arm-none-eabi/lib/thumb/v7e-m/fpv4-sp/hard\libg_nano.a(lib_a-fflush.o)
                0x000000001ffd49ec                _fflush_r
 .text._lseek_r
                0x000000001ffd4a40       0x24 c:/users/erth0001/user/gnuarmeclipse_photon/eclipse/gnu mcu eclipse/arm embedded gcc/bin/../lib/gcc/arm-none-eabi/7.3.1/../../../../arm-none-eabi/lib/thumb/v7e-m/fpv4-sp/hard\libg_nano.a(lib_a-lseekr.o)
                0x000000001ffd4a40                _lseek_r
 .text.__swhatbuf_r
                0x000000001ffd4a64       0x48 c:/users/erth0001/user/gnuarmeclipse_photon/eclipse/gnu mcu eclipse/arm embedded gcc/bin/../lib/gcc/arm-none-eabi/7.3.1/../../../../arm-none-eabi/lib/thumb/v7e-m/fpv4-sp/hard\libg_nano.a(lib_a-makebuf.o)
                0x000000001ffd4a64                __swhatbuf_r
 .text.__smakebuf_r
                0x000000001ffd4aac       0x80 c:/users/erth0001/user/gnuarmeclipse_photon/eclipse/gnu mcu eclipse/arm embedded gcc/bin/../lib/gcc/arm-none-eabi/7.3.1/../../../../arm-none-eabi/lib/thumb/v7e-m/fpv4-sp/hard\libg_nano.a(lib_a-makebuf.o)
                0x000000001ffd4aac                __smakebuf_r
 .text.memmove  0x000000001ffd4b2c       0x32 c:/users/erth0001/user/gnuarmeclipse_photon/eclipse/gnu mcu eclipse/arm embedded gcc/bin/../lib/gcc/arm-none-eabi/7.3.1/../../../../arm-none-eabi/lib/thumb/v7e-m/fpv4-sp/hard\libg_nano.a(lib_a-memmove.o)
                0x000000001ffd4b2c                memmove
 .text.__malloc_lock
                0x000000001ffd4b5e        0x2 c:/users/erth0001/user/gnuarmeclipse_photon/eclipse/gnu mcu eclipse/arm embedded gcc/bin/../lib/gcc/arm-none-eabi/7.3.1/../../../../arm-none-eabi/lib/thumb/v7e-m/fpv4-sp/hard\libg_nano.a(lib_a-mlock.o)
                0x000000001ffd4b5e                __malloc_lock
 .text.__malloc_unlock
                0x000000001ffd4b60        0x2 c:/users/erth0001/user/gnuarmeclipse_photon/eclipse/gnu mcu eclipse/arm embedded gcc/bin/../lib/gcc/arm-none-eabi/7.3.1/../../../../arm-none-eabi/lib/thumb/v7e-m/fpv4-sp/hard\libg_nano.a(lib_a-mlock.o)
                0x000000001ffd4b60                __malloc_unlock
 .text._realloc_r
                0x000000001ffd4b62       0x4c c:/users/erth0001/user/gnuarmeclipse_photon/eclipse/gnu mcu eclipse/arm embedded gcc/bin/../lib/gcc/arm-none-eabi/7.3.1/../../../../arm-none-eabi/lib/thumb/v7e-m/fpv4-sp/hard\libg_nano.a(lib_a-nano-reallocr.o)
                0x000000001ffd4b62                _realloc_r
 *fill*         0x000000001ffd4bae        0x2 
 .text._read_r  0x000000001ffd4bb0       0x24 c:/users/erth0001/user/gnuarmeclipse_photon/eclipse/gnu mcu eclipse/arm embedded gcc/bin/../lib/gcc/arm-none-eabi/7.3.1/../../../../arm-none-eabi/lib/thumb/v7e-m/fpv4-sp/hard\libg_nano.a(lib_a-readr.o)
                0x000000001ffd4bb0                _read_r
 .text._fstat_r
                0x000000001ffd4bd4       0x24 c:/users/erth0001/user/gnuarmeclipse_photon/eclipse/gnu mcu eclipse/arm embedded gcc/bin/../lib/gcc/arm-none-eabi/7.3.1/../../../../arm-none-eabi/lib/thumb/v7e-m/fpv4-sp/hard\libg_nano.a(lib_a-fstatr.o)
                0x000000001ffd4bd4                _fstat_r
 .text._isatty_r
                0x000000001ffd4bf8       0x20 c:/users/erth0001/user/gnuarmeclipse_photon/eclipse/gnu mcu eclipse/arm embedded gcc/bin/../lib/gcc/arm-none-eabi/7.3.1/../../../../arm-none-eabi/lib/thumb/v7e-m/fpv4-sp/hard\libg_nano.a(lib_a-isattyr.o)
                0x000000001ffd4bf8                _isatty_r
 .text._malloc_usable_size_r
                0x000000001ffd4c18       0x10 c:/users/erth0001/user/gnuarmeclipse_photon/eclipse/gnu mcu eclipse/arm embedded gcc/bin/../lib/gcc/arm-none-eabi/7.3.1/../../../../arm-none-eabi/lib/thumb/v7e-m/fpv4-sp/hard\libg_nano.a(lib_a-nano-msizer.o)
                0x000000001ffd4c18                _malloc_usable_size_r
 .text          0x000000001ffd4c28      0x378 c:/users/erth0001/user/gnuarmeclipse_photon/eclipse/gnu mcu eclipse/arm embedded gcc/bin/../lib/gcc/arm-none-eabi/7.3.1/thumb/v7e-m/fpv4-sp/hard\libgcc.a(_arm_addsubdf3.o)
                0x000000001ffd4c28                __aeabi_drsub
                0x000000001ffd4c30                __aeabi_dsub
                0x000000001ffd4c30                __subdf3
                0x000000001ffd4c34                __aeabi_dadd
                0x000000001ffd4c34                __adddf3
                0x000000001ffd4eac                __floatunsidf
                0x000000001ffd4eac                __aeabi_ui2d
                0x000000001ffd4ecc                __floatsidf
                0x000000001ffd4ecc                __aeabi_i2d
                0x000000001ffd4ef0                __aeabi_f2d
                0x000000001ffd4ef0                __extendsfdf2
                0x000000001ffd4f34                __floatundidf
                0x000000001ffd4f34                __aeabi_ul2d
                0x000000001ffd4f44                __floatdidf
                0x000000001ffd4f44                __aeabi_l2d
 .text          0x000000001ffd4fa0      0x424 c:/users/erth0001/user/gnuarmeclipse_photon/eclipse/gnu mcu eclipse/arm embedded gcc/bin/../lib/gcc/arm-none-eabi/7.3.1/thumb/v7e-m/fpv4-sp/hard\libgcc.a(_arm_muldivdf3.o)
                0x000000001ffd4fa0                __aeabi_dmul
                0x000000001ffd4fa0                __muldf3
                0x000000001ffd51f4                __divdf3
                0x000000001ffd51f4                __aeabi_ddiv
 .text          0x000000001ffd53c4      0x110 c:/users/erth0001/user/gnuarmeclipse_photon/eclipse/gnu mcu eclipse/arm embedded gcc/bin/../lib/gcc/arm-none-eabi/7.3.1/thumb/v7e-m/fpv4-sp/hard\libgcc.a(_arm_cmpdf2.o)
                0x000000001ffd53c4                __gtdf2
                0x000000001ffd53c4                __gedf2
                0x000000001ffd53cc                __ltdf2
                0x000000001ffd53cc                __ledf2
                0x000000001ffd53d4                __nedf2
                0x000000001ffd53d4                __eqdf2
                0x000000001ffd53d4                __cmpdf2
                0x000000001ffd5450                __aeabi_cdrcmple
                0x000000001ffd5460                __aeabi_cdcmpeq
                0x000000001ffd5460                __aeabi_cdcmple
                0x000000001ffd5470                __aeabi_dcmpeq
                0x000000001ffd5484                __aeabi_dcmplt
                0x000000001ffd5498                __aeabi_dcmple
                0x000000001ffd54ac                __aeabi_dcmpge
                0x000000001ffd54c0                __aeabi_dcmpgt
 .text          0x000000001ffd54d4       0x2c c:/users/erth0001/user/gnuarmeclipse_photon/eclipse/gnu mcu eclipse/arm embedded gcc/bin/../lib/gcc/arm-none-eabi/7.3.1/thumb/v7e-m/fpv4-sp/hard\libgcc.a(_arm_unorddf2.o)
                0x000000001ffd54d4                __unorddf2
                0x000000001ffd54d4                __aeabi_dcmpun
 .text          0x000000001ffd5500       0x50 c:/users/erth0001/user/gnuarmeclipse_photon/eclipse/gnu mcu eclipse/arm embedded gcc/bin/../lib/gcc/arm-none-eabi/7.3.1/thumb/v7e-m/fpv4-sp/hard\libgcc.a(_arm_fixdfsi.o)
                0x000000001ffd5500                __aeabi_d2iz
                0x000000001ffd5500                __fixdfsi
 .text          0x000000001ffd5550       0x40 c:/users/erth0001/user/gnuarmeclipse_photon/eclipse/gnu mcu eclipse/arm embedded gcc/bin/../lib/gcc/arm-none-eabi/7.3.1/thumb/v7e-m/fpv4-sp/hard\libgcc.a(_arm_fixunsdfsi.o)
                0x000000001ffd5550                __aeabi_d2uiz
                0x000000001ffd5550                __fixunsdfsi
 .text.findslot
                0x000000001ffd5590       0x34 c:/users/erth0001/user/gnuarmeclipse_photon/eclipse/gnu mcu eclipse/arm embedded gcc/bin/../lib/gcc/arm-none-eabi/7.3.1/../../../../arm-none-eabi/lib/thumb/v7e-m/fpv4-sp/hard\librdimon_nano.a(rdimon-syscalls.o)
 .text.checkerror
                0x000000001ffd55c4       0x20 c:/users/erth0001/user/gnuarmeclipse_photon/eclipse/gnu mcu eclipse/arm embedded gcc/bin/../lib/gcc/arm-none-eabi/7.3.1/../../../../arm-none-eabi/lib/thumb/v7e-m/fpv4-sp/hard\librdimon_nano.a(rdimon-syscalls.o)
 .text.error    0x000000001ffd55e4       0x1c c:/users/erth0001/user/gnuarmeclipse_photon/eclipse/gnu mcu eclipse/arm embedded gcc/bin/../lib/gcc/arm-none-eabi/7.3.1/../../../../arm-none-eabi/lib/thumb/v7e-m/fpv4-sp/hard\librdimon_nano.a(rdimon-syscalls.o)
 .text._swiread
                0x000000001ffd5600       0x20 c:/users/erth0001/user/gnuarmeclipse_photon/eclipse/gnu mcu eclipse/arm embedded gcc/bin/../lib/gcc/arm-none-eabi/7.3.1/../../../../arm-none-eabi/lib/thumb/v7e-m/fpv4-sp/hard\librdimon_nano.a(rdimon-syscalls.o)
                0x000000001ffd5600                _swiread
 .text._read    0x000000001ffd5620       0x34 c:/users/erth0001/user/gnuarmeclipse_photon/eclipse/gnu mcu eclipse/arm embedded gcc/bin/../lib/gcc/arm-none-eabi/7.3.1/../../../../arm-none-eabi/lib/thumb/v7e-m/fpv4-sp/hard\librdimon_nano.a(rdimon-syscalls.o)
                0x000000001ffd5620                _read
 .text._swilseek
                0x000000001ffd5654       0x7a c:/users/erth0001/user/gnuarmeclipse_photon/eclipse/gnu mcu eclipse/arm embedded gcc/bin/../lib/gcc/arm-none-eabi/7.3.1/../../../../arm-none-eabi/lib/thumb/v7e-m/fpv4-sp/hard\librdimon_nano.a(rdimon-syscalls.o)
                0x000000001ffd5654                _swilseek
 .text._lseek   0x000000001ffd56ce        0x4 c:/users/erth0001/user/gnuarmeclipse_photon/eclipse/gnu mcu eclipse/arm embedded gcc/bin/../lib/gcc/arm-none-eabi/7.3.1/../../../../arm-none-eabi/lib/thumb/v7e-m/fpv4-sp/hard\librdimon_nano.a(rdimon-syscalls.o)
                0x000000001ffd56ce                _lseek
 .text._swiwrite
                0x000000001ffd56d2       0x20 c:/users/erth0001/user/gnuarmeclipse_photon/eclipse/gnu mcu eclipse/arm embedded gcc/bin/../lib/gcc/arm-none-eabi/7.3.1/../../../../arm-none-eabi/lib/thumb/v7e-m/fpv4-sp/hard\librdimon_nano.a(rdimon-syscalls.o)
                0x000000001ffd56d2                _swiwrite
 .text._write   0x000000001ffd56f2       0x40 c:/users/erth0001/user/gnuarmeclipse_photon/eclipse/gnu mcu eclipse/arm embedded gcc/bin/../lib/gcc/arm-none-eabi/7.3.1/../../../../arm-none-eabi/lib/thumb/v7e-m/fpv4-sp/hard\librdimon_nano.a(rdimon-syscalls.o)
                0x000000001ffd56f2                _write
 .text._swiclose
                0x000000001ffd5732       0x1c c:/users/erth0001/user/gnuarmeclipse_photon/eclipse/gnu mcu eclipse/arm embedded gcc/bin/../lib/gcc/arm-none-eabi/7.3.1/../../../../arm-none-eabi/lib/thumb/v7e-m/fpv4-sp/hard\librdimon_nano.a(rdimon-syscalls.o)
                0x000000001ffd5732                _swiclose
 *fill*         0x000000001ffd574e        0x2 
 .text._close   0x000000001ffd5750       0x4c c:/users/erth0001/user/gnuarmeclipse_photon/eclipse/gnu mcu eclipse/arm embedded gcc/bin/../lib/gcc/arm-none-eabi/7.3.1/../../../../arm-none-eabi/lib/thumb/v7e-m/fpv4-sp/hard\librdimon_nano.a(rdimon-syscalls.o)
                0x000000001ffd5750                _close
 .text._sbrk    0x000000001ffd579c       0x48 c:/users/erth0001/user/gnuarmeclipse_photon/eclipse/gnu mcu eclipse/arm embedded gcc/bin/../lib/gcc/arm-none-eabi/7.3.1/../../../../arm-none-eabi/lib/thumb/v7e-m/fpv4-sp/hard\librdimon_nano.a(rdimon-syscalls.o)
                0x000000001ffd579c                _sbrk
 .text._swistat
                0x000000001ffd57e4       0x42 c:/users/erth0001/user/gnuarmeclipse_photon/eclipse/gnu mcu eclipse/arm embedded gcc/bin/../lib/gcc/arm-none-eabi/7.3.1/../../../../arm-none-eabi/lib/thumb/v7e-m/fpv4-sp/hard\librdimon_nano.a(rdimon-syscalls.o)
                0x000000001ffd57e4                _swistat
 .text._fstat   0x000000001ffd5826       0x1c c:/users/erth0001/user/gnuarmeclipse_photon/eclipse/gnu mcu eclipse/arm embedded gcc/bin/../lib/gcc/arm-none-eabi/7.3.1/../../../../arm-none-eabi/lib/thumb/v7e-m/fpv4-sp/hard\librdimon_nano.a(rdimon-syscalls.o)
                0x000000001ffd5826                _fstat
 .text._stat    0x000000001ffd5842       0x3a c:/users/erth0001/user/gnuarmeclipse_photon/eclipse/gnu mcu eclipse/arm embedded gcc/bin/../lib/gcc/arm-none-eabi/7.3.1/../../../../arm-none-eabi/lib/thumb/v7e-m/fpv4-sp/hard\librdimon_nano.a(rdimon-syscalls.o)
                0x000000001ffd5842                _stat
 .text._swiopen
                0x000000001ffd587c       0xb8 c:/users/erth0001/user/gnuarmeclipse_photon/eclipse/gnu mcu eclipse/arm embedded gcc/bin/../lib/gcc/arm-none-eabi/7.3.1/../../../../arm-none-eabi/lib/thumb/v7e-m/fpv4-sp/hard\librdimon_nano.a(rdimon-syscalls.o)
                0x000000001ffd587c                _swiopen
 .text._get_semihosting_exts
                0x000000001ffd5934       0xb4 c:/users/erth0001/user/gnuarmeclipse_photon/eclipse/gnu mcu eclipse/arm embedded gcc/bin/../lib/gcc/arm-none-eabi/7.3.1/../../../../arm-none-eabi/lib/thumb/v7e-m/fpv4-sp/hard\librdimon_nano.a(rdimon-syscalls.o)
                0x000000001ffd5934                _get_semihosting_exts
 .text.initialise_semihosting_exts
                0x000000001ffd59e8       0x34 c:/users/erth0001/user/gnuarmeclipse_photon/eclipse/gnu mcu eclipse/arm embedded gcc/bin/../lib/gcc/arm-none-eabi/7.3.1/../../../../arm-none-eabi/lib/thumb/v7e-m/fpv4-sp/hard\librdimon_nano.a(rdimon-syscalls.o)
 .text._has_ext_stdout_stderr
                0x000000001ffd5a1c       0x18 c:/users/erth0001/user/gnuarmeclipse_photon/eclipse/gnu mcu eclipse/arm embedded gcc/bin/../lib/gcc/arm-none-eabi/7.3.1/../../../../arm-none-eabi/lib/thumb/v7e-m/fpv4-sp/hard\librdimon_nano.a(rdimon-syscalls.o)
                0x000000001ffd5a1c                _has_ext_stdout_stderr
 .text.initialise_monitor_handles
                0x000000001ffd5a34       0xbc c:/users/erth0001/user/gnuarmeclipse_photon/eclipse/gnu mcu eclipse/arm embedded gcc/bin/../lib/gcc/arm-none-eabi/7.3.1/../../../../arm-none-eabi/lib/thumb/v7e-m/fpv4-sp/hard\librdimon_nano.a(rdimon-syscalls.o)
                0x000000001ffd5a34                initialise_monitor_handles
 .text._isatty  0x000000001ffd5af0       0x38 c:/users/erth0001/user/gnuarmeclipse_photon/eclipse/gnu mcu eclipse/arm embedded gcc/bin/../lib/gcc/arm-none-eabi/7.3.1/../../../../arm-none-eabi/lib/thumb/v7e-m/fpv4-sp/hard\librdimon_nano.a(rdimon-syscalls.o)
                0x000000001ffd5af0                _isatty
 .text.__errno  0x000000001ffd5b28        0xc c:/users/erth0001/user/gnuarmeclipse_photon/eclipse/gnu mcu eclipse/arm embedded gcc/bin/../lib/gcc/arm-none-eabi/7.3.1/../../../../arm-none-eabi/lib/thumb/v7e-m/fpv4-sp/hard\libc_nano.a(lib_a-errno.o)
                0x000000001ffd5b28                __errno
 *(.plt)
 *(.gnu.warning)
 *(.glue_7t)
 .glue_7t       0x000000001ffd5b34        0x0 linker stubs
 *(.glue_7)
 .glue_7        0x000000001ffd5b34        0x0 linker stubs
 *(.vfp11_veneer)
 .vfp11_veneer  0x000000001ffd5b34        0x0 linker stubs
 *(.rodata .rodata.* .gnu.linkonce.r.*)
 .rodata        0x000000001ffd5b34        0xe ./src/Examples/Semihosting.o
 .rodata._printf_float.str1.1
                0x000000001ffd5b42       0x12 c:/users/erth0001/user/gnuarmeclipse_photon/eclipse/gnu mcu eclipse/arm embedded gcc/bin/../lib/gcc/arm-none-eabi/7.3.1/../../../../arm-none-eabi/lib/thumb/v7e-m/fpv4-sp/hard\libg_nano.a(lib_a-nano-vfprintf_float.o)
 .rodata._printf_i.str1.1
                0x000000001ffd5b54       0x22 c:/users/erth0001/user/gnuarmeclipse_photon/eclipse/gnu mcu eclipse/arm embedded gcc/bin/../lib/gcc/arm-none-eabi/7.3.1/../../../../arm-none-eabi/lib/thumb/v7e-m/fpv4-sp/hard\libg_nano.a(lib_a-nano-vfprintf_i.o)
 .rodata._scanf_float.str1.1
                0x000000001ffd5b76        0x5 c:/users/erth0001/user/gnuarmeclipse_photon/eclipse/gnu mcu eclipse/arm embedded gcc/bin/../lib/gcc/arm-none-eabi/7.3.1/../../../../arm-none-eabi/lib/thumb/v7e-m/fpv4-sp/hard\libg_nano.a(lib_a-nano-vfscanf_float.o)
 .rodata._strtod_l.str1.1
                0x000000001ffd5b7b        0x5 c:/users/erth0001/user/gnuarmeclipse_photon/eclipse/gnu mcu eclipse/arm embedded gcc/bin/../lib/gcc/arm-none-eabi/7.3.1/../../../../arm-none-eabi/lib/thumb/v7e-m/fpv4-sp/hard\libg_nano.a(lib_a-strtod.o)
                                          0xc (size before relaxing)
 *fill*         0x000000001ffd5b7b        0x1 
 .rodata.fpi.7435
                0x000000001ffd5b7c       0x14 c:/users/erth0001/user/gnuarmeclipse_photon/eclipse/gnu mcu eclipse/arm embedded gcc/bin/../lib/gcc/arm-none-eabi/7.3.1/../../../../arm-none-eabi/lib/thumb/v7e-m/fpv4-sp/hard\libg_nano.a(lib_a-strtod.o)
 .rodata.fpinan.7471
                0x000000001ffd5b90       0x14 c:/users/erth0001/user/gnuarmeclipse_photon/eclipse/gnu mcu eclipse/arm embedded gcc/bin/../lib/gcc/arm-none-eabi/7.3.1/../../../../arm-none-eabi/lib/thumb/v7e-m/fpv4-sp/hard\libg_nano.a(lib_a-strtod.o)
 *fill*         0x000000001ffd5ba4        0x4 
 .rodata.tinytens
                0x000000001ffd5ba8       0x28 c:/users/erth0001/user/gnuarmeclipse_photon/eclipse/gnu mcu eclipse/arm embedded gcc/bin/../lib/gcc/arm-none-eabi/7.3.1/../../../../arm-none-eabi/lib/thumb/v7e-m/fpv4-sp/hard\libg_nano.a(lib_a-strtod.o)
 .rodata._dtoa_r.str1.1
                0x000000001ffd5bd0        0xd c:/users/erth0001/user/gnuarmeclipse_photon/eclipse/gnu mcu eclipse/arm embedded gcc/bin/../lib/gcc/arm-none-eabi/7.3.1/../../../../arm-none-eabi/lib/thumb/v7e-m/fpv4-sp/hard\libg_nano.a(lib_a-dtoa.o)
                                          0xf (size before relaxing)
 *fill*         0x000000001ffd5bdd        0x3 
 .rodata.__sf_fake_stderr
                0x000000001ffd5be0       0x20 c:/users/erth0001/user/gnuarmeclipse_photon/eclipse/gnu mcu eclipse/arm embedded gcc/bin/../lib/gcc/arm-none-eabi/7.3.1/../../../../arm-none-eabi/lib/thumb/v7e-m/fpv4-sp/hard\libg_nano.a(lib_a-findfp.o)
                0x000000001ffd5be0                __sf_fake_stderr
 .rodata.__sf_fake_stdin
                0x000000001ffd5c00       0x20 c:/users/erth0001/user/gnuarmeclipse_photon/eclipse/gnu mcu eclipse/arm embedded gcc/bin/../lib/gcc/arm-none-eabi/7.3.1/../../../../arm-none-eabi/lib/thumb/v7e-m/fpv4-sp/hard\libg_nano.a(lib_a-findfp.o)
                0x000000001ffd5c00                __sf_fake_stdin
 .rodata.__sf_fake_stdout
                0x000000001ffd5c20       0x20 c:/users/erth0001/user/gnuarmeclipse_photon/eclipse/gnu mcu eclipse/arm embedded gcc/bin/../lib/gcc/arm-none-eabi/7.3.1/../../../../arm-none-eabi/lib/thumb/v7e-m/fpv4-sp/hard\libg_nano.a(lib_a-findfp.o)
                0x000000001ffd5c20                __sf_fake_stdout
 .rodata._global_impure_ptr
                0x000000001ffd5c40        0x4 c:/users/erth0001/user/gnuarmeclipse_photon/eclipse/gnu mcu eclipse/arm embedded gcc/bin/../lib/gcc/arm-none-eabi/7.3.1/../../../../arm-none-eabi/lib/thumb/v7e-m/fpv4-sp/hard\libg_nano.a(lib_a-impure.o)
                0x000000001ffd5c40                _global_impure_ptr
 .rodata._setlocale_r.str1.1
                0x000000001ffd5c44        0x8 c:/users/erth0001/user/gnuarmeclipse_photon/eclipse/gnu mcu eclipse/arm embedded gcc/bin/../lib/gcc/arm-none-eabi/7.3.1/../../../../arm-none-eabi/lib/thumb/v7e-m/fpv4-sp/hard\libg_nano.a(lib_a-locale.o)
                                          0x9 (size before relaxing)
 .rodata.str1.1
                0x000000001ffd5c4c        0x2 c:/users/erth0001/user/gnuarmeclipse_photon/eclipse/gnu mcu eclipse/arm embedded gcc/bin/../lib/gcc/arm-none-eabi/7.3.1/../../../../arm-none-eabi/lib/thumb/v7e-m/fpv4-sp/hard\libg_nano.a(lib_a-locale.o)
 *fill*         0x000000001ffd5c4e        0x2 
 .rodata.__mprec_bigtens
                0x000000001ffd5c50       0x28 c:/users/erth0001/user/gnuarmeclipse_photon/eclipse/gnu mcu eclipse/arm embedded gcc/bin/../lib/gcc/arm-none-eabi/7.3.1/../../../../arm-none-eabi/lib/thumb/v7e-m/fpv4-sp/hard\libg_nano.a(lib_a-mprec.o)
                0x000000001ffd5c50                __mprec_bigtens
 .rodata.__mprec_tens
                0x000000001ffd5c78       0xc8 c:/users/erth0001/user/gnuarmeclipse_photon/eclipse/gnu mcu eclipse/arm embedded gcc/bin/../lib/gcc/arm-none-eabi/7.3.1/../../../../arm-none-eabi/lib/thumb/v7e-m/fpv4-sp/hard\libg_nano.a(lib_a-mprec.o)
                0x000000001ffd5c78                __mprec_tens
 .rodata.p05.7359
                0x000000001ffd5d40        0xc c:/users/erth0001/user/gnuarmeclipse_photon/eclipse/gnu mcu eclipse/arm embedded gcc/bin/../lib/gcc/arm-none-eabi/7.3.1/../../../../arm-none-eabi/lib/thumb/v7e-m/fpv4-sp/hard\libg_nano.a(lib_a-mprec.o)
 .rodata._svfprintf_r.str1.1
                0x000000001ffd5d4c       0x11 c:/users/erth0001/user/gnuarmeclipse_photon/eclipse/gnu mcu eclipse/arm embedded gcc/bin/../lib/gcc/arm-none-eabi/7.3.1/../../../../arm-none-eabi/lib/thumb/v7e-m/fpv4-sp/hard\libg_nano.a(lib_a-nano-svfprintf.o)
 .rodata._vfprintf_r.str1.1
                0x000000001ffd5d5d       0x11 c:/users/erth0001/user/gnuarmeclipse_photon/eclipse/gnu mcu eclipse/arm embedded gcc/bin/../lib/gcc/arm-none-eabi/7.3.1/../../../../arm-none-eabi/lib/thumb/v7e-m/fpv4-sp/hard\libg_nano.a(lib_a-nano-vfprintf.o)
 .rodata._ctype_
                0x000000001ffd5d5d      0x101 c:/users/erth0001/user/gnuarmeclipse_photon/eclipse/gnu mcu eclipse/arm embedded gcc/bin/../lib/gcc/arm-none-eabi/7.3.1/../../../../arm-none-eabi/lib/thumb/v7e-m/fpv4-sp/hard\libg_nano.a(lib_a-ctype_.o)
                0x000000001ffd5d5d                _ctype_
 .rodata._get_semihosting_exts.str1.1
                0x000000001ffd5e5e       0x16 c:/users/erth0001/user/gnuarmeclipse_photon/eclipse/gnu mcu eclipse/arm embedded gcc/bin/../lib/gcc/arm-none-eabi/7.3.1/../../../../arm-none-eabi/lib/thumb/v7e-m/fpv4-sp/hard\librdimon_nano.a(rdimon-syscalls.o)
 .rodata.initialise_monitor_handles.str1.1
                0x000000001ffd5e74        0x4 c:/users/erth0001/user/gnuarmeclipse_photon/eclipse/gnu mcu eclipse/arm embedded gcc/bin/../lib/gcc/arm-none-eabi/7.3.1/../../../../arm-none-eabi/lib/thumb/v7e-m/fpv4-sp/hard\librdimon_nano.a(rdimon-syscalls.o)
 *(.ARM.extab* .gnu.linkonce.armextab.*)
 *(.gcc_except_table)
 *(.eh_frame_hdr)
 *(.eh_frame)
                0x000000001ffd5e78                . = ALIGN (0x4)
 *(.init)
                0x000000001ffd5e78                . = ALIGN (0x4)
                0x000000001ffd5e78                __preinit_array_start = .
 *(.preinit_array)
                0x000000001ffd5e78                __preinit_array_end = .
                0x000000001ffd5e78                . = ALIGN (0x4)
                0x000000001ffd5e78                __init_array_start = .
 *(SORT_BY_NAME(.init_array.*))
 *(.init_array)
                0x000000001ffd5e78                __init_array_end = .
                0x000000001ffd5e78                . = ALIGN (0x4)
 *crtbegin.o(.ctors)
 *(EXCLUDE_FILE(*crtend.o) .ctors)
 *(SORT_BY_NAME(.ctors.*))
 *crtend.o(.ctors)
                0x000000001ffd5e78                . = ALIGN (0x4)
 *(.fini)
                0x000000001ffd5e78                . = ALIGN (0x4)
                0x000000001ffd5e78                __fini_array_start = .
 *(.fini_array)
 *(SORT_BY_NAME(.fini_array.*))
                0x000000001ffd5e78                __fini_array_end = .
 *crtbegin.o(.dtors)
 *(EXCLUDE_FILE(*crtend.o) .dtors)
 *(SORT_BY_NAME(.dtors.*))
 *crtend.o(.dtors)
                0x000000001ffd5e78                . = ALIGN (0x4)
                0x000000001ffd5e78                __FM_regions = .
                0x000000001ffd5e78        0x4 LONG 0x0
                0x000000001ffd5e7c        0x4 LONG 0x1ffd5e98 __FM_region_init_ram
                0x000000001ffd5e80        0x4 LONG 0x1ffd0000 __FM_region_start_ram
                0x000000001ffd5e84        0x4 LONG 0x210 __FM_region_init_size_ram
                0x000000001ffd5e88        0x4 LONG 0xd0 __FM_region_zero_size_ram
                0x000000001ffd5e8c                __exidx_start = .

.v4_bx          0x000000001ffd5e8c        0x0
 .v4_bx         0x000000001ffd5e8c        0x0 linker stubs

.iplt           0x000000001ffd5e8c        0x0
 .iplt          0x000000001ffd5e8c        0x0 ./system/include/S6E2CCA/startup/startup_s6e2cc.o

.ARM.exidx      0x000000001ffd5e8c        0x8
 *(.ARM.exidx* .gnu.linkonce.armexidx.*)
 .ARM.exidx.FM.reset
                0x000000001ffd5e8c        0x8 ./system/include/S6E2CCA/startup/startup_s6e2cc.o
                0x000000001ffd5e94                __exidx_end = .

.rel.dyn        0x000000001ffd5e94        0x0
 .rel.iplt      0x000000001ffd5e94        0x0 ./system/include/S6E2CCA/startup/startup_s6e2cc.o

.text.align     0x000000001ffd5e94        0x4
                0x000000001ffd5e98                . = ALIGN (0x8)
 *fill*         0x000000001ffd5e94        0x4 
                0x000000001ffd5e98                _etext = .
                0x0000000000200000                __FM_region_size_rom = LENGTH (ROM)
                0x0000000000000001                __FM_region_num = 0x1

.data           0x000000001ffd5e98      0x210
                0x000000001ffd5e98                _sdata = .
                0x000000001ffd5e98                __FM_region_start_ram = .
 *(.FM.region-head.RAM)
 *(.jcr)
 *(.got.plt)
 *(.got)
 *(.shdata)
 *(.data .data.* .gnu.linkonce.d.*)
 .data.m_astcI2sInstanceDataLut
                0x000000001ffd5e98       0x30 ./system/include/S6E2CCA/PDL/i2s.o
                0x000000001ffd5e98                m_astcI2sInstanceDataLut
 .data._impure_ptr
                0x000000001ffd5ec8        0x4 c:/users/erth0001/user/gnuarmeclipse_photon/eclipse/gnu mcu eclipse/arm embedded gcc/bin/../lib/gcc/arm-none-eabi/7.3.1/../../../../arm-none-eabi/lib/thumb/v7e-m/fpv4-sp/hard\libg_nano.a(lib_a-impure.o)
                0x000000001ffd5ec8                _impure_ptr
 .data.impure_data
                0x000000001ffd5ecc       0x60 c:/users/erth0001/user/gnuarmeclipse_photon/eclipse/gnu mcu eclipse/arm embedded gcc/bin/../lib/gcc/arm-none-eabi/7.3.1/../../../../arm-none-eabi/lib/thumb/v7e-m/fpv4-sp/hard\libg_nano.a(lib_a-impure.o)
 .data.__global_locale
                0x000000001ffd5f2c      0x16c c:/users/erth0001/user/gnuarmeclipse_photon/eclipse/gnu mcu eclipse/arm embedded gcc/bin/../lib/gcc/arm-none-eabi/7.3.1/../../../../arm-none-eabi/lib/thumb/v7e-m/fpv4-sp/hard\libg_nano.a(lib_a-locale.o)
                0x000000001ffd5f2c                __global_locale
 .data.__heap_limit
                0x000000001ffd6098        0x4 c:/users/erth0001/user/gnuarmeclipse_photon/eclipse/gnu mcu eclipse/arm embedded gcc/bin/../lib/gcc/arm-none-eabi/7.3.1/../../../../arm-none-eabi/lib/thumb/v7e-m/fpv4-sp/hard\librdimon_nano.a(rdimon-syscalls.o)
                0x000000001ffd6098                __heap_limit
 .data.supports_ext_exit_extended
                0x000000001ffd609c        0x4 c:/users/erth0001/user/gnuarmeclipse_photon/eclipse/gnu mcu eclipse/arm embedded gcc/bin/../lib/gcc/arm-none-eabi/7.3.1/../../../../arm-none-eabi/lib/thumb/v7e-m/fpv4-sp/hard\librdimon_nano.a(rdimon-syscalls.o)
 .data.supports_ext_stdout_stderr
                0x000000001ffd60a0        0x4 c:/users/erth0001/user/gnuarmeclipse_photon/eclipse/gnu mcu eclipse/arm embedded gcc/bin/../lib/gcc/arm-none-eabi/7.3.1/../../../../arm-none-eabi/lib/thumb/v7e-m/fpv4-sp/hard\librdimon_nano.a(rdimon-syscalls.o)
 *(.RAM)
                0x000000001ffd60a8                . = ALIGN (0x8)
 *fill*         0x000000001ffd60a4        0x4 
                0x000000001ffd60a8                _edata = .
                0x0000000000000210                data_size = (_edata - _sdata)

.igot.plt       0x000000001ffd60a8        0x0
 .igot.plt      0x000000001ffd60a8        0x0 ./system/include/S6E2CCA/startup/startup_s6e2cc.o

.bss            0x000000001ffd60a8       0xd0
                0x000000001ffd60a8                _sbss = .
 *(.shbss)
 *(.bss .bss.* .gnu.linkonce.b.*)
 .bss.stcDstcInternData
                0x000000001ffd60a8       0x10 ./system/include/S6E2CCA/PDL/dstc.o
 .bss.u32IoRegisterRead.55935
                0x000000001ffd60b8        0x4 ./system/include/S6E2CCA/PDL/system_s6e2cc.o
 .bss.__malloc_free_list
                0x000000001ffd60bc        0x4 c:/users/erth0001/user/gnuarmeclipse_photon/eclipse/gnu mcu eclipse/arm embedded gcc/bin/../lib/gcc/arm-none-eabi/7.3.1/../../../../arm-none-eabi/lib/thumb/v7e-m/fpv4-sp/hard\libg_nano.a(lib_a-nano-mallocr.o)
                0x000000001ffd60bc                __malloc_free_list
 .bss.__malloc_sbrk_start
                0x000000001ffd60c0        0x4 c:/users/erth0001/user/gnuarmeclipse_photon/eclipse/gnu mcu eclipse/arm embedded gcc/bin/../lib/gcc/arm-none-eabi/7.3.1/../../../../arm-none-eabi/lib/thumb/v7e-m/fpv4-sp/hard\libg_nano.a(lib_a-nano-mallocr.o)
                0x000000001ffd60c0                __malloc_sbrk_start
 .bss.heap_end.7522
                0x000000001ffd60c4        0x4 c:/users/erth0001/user/gnuarmeclipse_photon/eclipse/gnu mcu eclipse/arm embedded gcc/bin/../lib/gcc/arm-none-eabi/7.3.1/../../../../arm-none-eabi/lib/thumb/v7e-m/fpv4-sp/hard\librdimon_nano.a(rdimon-syscalls.o)
 .bss.monitor_stderr
                0x000000001ffd60c8        0x4 c:/users/erth0001/user/gnuarmeclipse_photon/eclipse/gnu mcu eclipse/arm embedded gcc/bin/../lib/gcc/arm-none-eabi/7.3.1/../../../../arm-none-eabi/lib/thumb/v7e-m/fpv4-sp/hard\librdimon_nano.a(rdimon-syscalls.o)
 .bss.monitor_stdin
                0x000000001ffd60cc        0x4 c:/users/erth0001/user/gnuarmeclipse_photon/eclipse/gnu mcu eclipse/arm embedded gcc/bin/../lib/gcc/arm-none-eabi/7.3.1/../../../../arm-none-eabi/lib/thumb/v7e-m/fpv4-sp/hard\librdimon_nano.a(rdimon-syscalls.o)
 .bss.monitor_stdout
                0x000000001ffd60d0        0x4 c:/users/erth0001/user/gnuarmeclipse_photon/eclipse/gnu mcu eclipse/arm embedded gcc/bin/../lib/gcc/arm-none-eabi/7.3.1/../../../../arm-none-eabi/lib/thumb/v7e-m/fpv4-sp/hard\librdimon_nano.a(rdimon-syscalls.o)
 .bss.openfiles
                0x000000001ffd60d4       0xa0 c:/users/erth0001/user/gnuarmeclipse_photon/eclipse/gnu mcu eclipse/arm embedded gcc/bin/../lib/gcc/arm-none-eabi/7.3.1/../../../../arm-none-eabi/lib/thumb/v7e-m/fpv4-sp/hard\librdimon_nano.a(rdimon-syscalls.o)
 *(COMMON)
 COMMON         0x000000001ffd6174        0x4 c:/users/erth0001/user/gnuarmeclipse_photon/eclipse/gnu mcu eclipse/arm embedded gcc/bin/../lib/gcc/arm-none-eabi/7.3.1/../../../../arm-none-eabi/lib/thumb/v7e-m/fpv4-sp/hard\libg_nano.a(lib_a-reent.o)
                0x000000001ffd6174                errno
                0x000000001ffd6178                _ebss = .
 *(.RAM.b)
                0x000000001ffd6178                . = ALIGN (0x8)
                0x000000001ffd6178                end = .
                0x000000001ffd6178                _end = .
                0x000000001ffd6178                __end = .
                0x00000000000000d0                bss_size = (_ebss - _sbss)

.heap           0x000000001ffd6178      0x400
 *(.heap)
 .heap          0x000000001ffd6178      0x400 ./system/include/S6E2CCA/startup/startup_s6e2cc.o
                0x000000001ffd6178                __FM_heap_start
                0x000000001ffd6578                __FM_heap_end

.stack          0x0000000020005a98      0x400
 *(.stack)
 *fill*         0x0000000020005a98        0x0 
 .stack         0x0000000020005a98      0x400 ./system/include/S6E2CCA/startup/startup_s6e2cc.o
                0x0000000020005a98                __FM_stack_mem
                0x000000001ffd5e98                __FM_region_init_ram = LOADADDR (.data)
                0x0000000000000210                __FM_region_init_size_ram = (_edata - __FM_region_start_ram)
                0x00000000000000d0                __FM_region_zero_size_ram = (_end - _edata)
                0x0000000000030000                __FM_region_size_ram = LENGTH (RAM)
                0x0000000000000001                __FM_region_num = 0x1

.stab
 *(.stab)

.stabstr
 *(.stabstr)

.debug
 *(.debug)

.line
 *(.line)

.debug_srcinfo
 *(.debug_srcinfo)

.debug_sfnames
 *(.debug_sfnames)

.debug_aranges  0x0000000000000000      0x298
 *(.debug_aranges)
 .debug_aranges
                0x0000000000000000       0x28 ./system/include/S6E2CCA/startup/startup_s6e2cc.o
 .debug_aranges
                0x0000000000000028       0xe0 ./system/include/S6E2CCA/PDL/dstc.o
 .debug_aranges
                0x0000000000000108      0x118 ./system/include/S6E2CCA/PDL/i2s.o
 .debug_aranges
                0x0000000000000220       0x30 ./system/include/S6E2CCA/PDL/interrupts_fm4_type_b.o
 .debug_aranges
                0x0000000000000250       0x28 ./system/include/S6E2CCA/PDL/system_s6e2cc.o
 .debug_aranges
                0x0000000000000278       0x20 ./src/Examples/Semihosting.o

.debug_pubnames
 *(.debug_pubnames)

.debug_info     0x0000000000000000    0x1c37a
 *(.debug_info .gnu.linkonce.wi.*)
 .debug_info    0x0000000000000000       0x22 ./system/include/S6E2CCA/startup/startup_s6e2cc.o
 .debug_info    0x0000000000000022     0x37af ./system/include/S6E2CCA/PDL/dstc.o
 .debug_info    0x00000000000037d1     0x3cdf ./system/include/S6E2CCA/PDL/i2s.o
 .debug_info    0x00000000000074b0     0xc75e ./system/include/S6E2CCA/PDL/interrupts_fm4_type_b.o
 .debug_info    0x0000000000013c0e     0x7ebe ./system/include/S6E2CCA/PDL/system_s6e2cc.o
 .debug_info    0x000000000001bacc      0x8ae ./src/Examples/Semihosting.o

.debug_abbrev   0x0000000000000000      0xa8e
 *(.debug_abbrev)
 .debug_abbrev  0x0000000000000000       0x12 ./system/include/S6E2CCA/startup/startup_s6e2cc.o
 .debug_abbrev  0x0000000000000012      0x2b4 ./system/include/S6E2CCA/PDL/dstc.o
 .debug_abbrev  0x00000000000002c6      0x2d6 ./system/include/S6E2CCA/PDL/i2s.o
 .debug_abbrev  0x000000000000059c      0x1a9 ./system/include/S6E2CCA/PDL/interrupts_fm4_type_b.o
 .debug_abbrev  0x0000000000000745      0x1ae ./system/include/S6E2CCA/PDL/system_s6e2cc.o
 .debug_abbrev  0x00000000000008f3      0x19b ./src/Examples/Semihosting.o

.debug_line     0x0000000000000000     0x149a
 *(.debug_line)
 .debug_line    0x0000000000000000       0xb1 ./system/include/S6E2CCA/startup/startup_s6e2cc.o
 .debug_line    0x00000000000000b1      0x552 ./system/include/S6E2CCA/PDL/dstc.o
 .debug_line    0x0000000000000603      0x62a ./system/include/S6E2CCA/PDL/i2s.o
 .debug_line    0x0000000000000c2d      0x286 ./system/include/S6E2CCA/PDL/interrupts_fm4_type_b.o
 .debug_line    0x0000000000000eb3      0x264 ./system/include/S6E2CCA/PDL/system_s6e2cc.o
 .debug_line    0x0000000000001117      0x383 ./src/Examples/Semihosting.o

.debug_frame    0x0000000000000000     0x2040
 *(.debug_frame)
 .debug_frame   0x0000000000000000      0x3e4 ./system/include/S6E2CCA/PDL/dstc.o
 .debug_frame   0x00000000000003e4      0x4e0 ./system/include/S6E2CCA/PDL/i2s.o
 .debug_frame   0x00000000000008c4       0x6c ./system/include/S6E2CCA/PDL/interrupts_fm4_type_b.o
 .debug_frame   0x0000000000000930       0x58 ./system/include/S6E2CCA/PDL/system_s6e2cc.o
 .debug_frame   0x0000000000000988       0x2c ./src/Examples/Semihosting.o
 .debug_frame   0x00000000000009b4       0x24 c:/users/erth0001/user/gnuarmeclipse_photon/eclipse/gnu mcu eclipse/arm embedded gcc/bin/../lib/gcc/arm-none-eabi/7.3.1/thumb/v7e-m/fpv4-sp/hard\libgcc.a(_arm_truncdfsf2.o)
 .debug_frame   0x00000000000009d8       0x20 c:/users/erth0001/user/gnuarmeclipse_photon/eclipse/gnu mcu eclipse/arm embedded gcc/bin/../lib/gcc/arm-none-eabi/7.3.1/../../../../arm-none-eabi/lib/thumb/v7e-m/fpv4-sp/hard\libg_nano.a(lib_a-memset.o)
 .debug_frame   0x00000000000009f8       0x8c c:/users/erth0001/user/gnuarmeclipse_photon/eclipse/gnu mcu eclipse/arm embedded gcc/bin/../lib/gcc/arm-none-eabi/7.3.1/../../../../arm-none-eabi/lib/thumb/v7e-m/fpv4-sp/hard\libg_nano.a(lib_a-nano-vfprintf_float.o)
 .debug_frame   0x0000000000000a84       0x60 c:/users/erth0001/user/gnuarmeclipse_photon/eclipse/gnu mcu eclipse/arm embedded gcc/bin/../lib/gcc/arm-none-eabi/7.3.1/../../../../arm-none-eabi/lib/thumb/v7e-m/fpv4-sp/hard\libg_nano.a(lib_a-nano-vfprintf_i.o)
 .debug_frame   0x0000000000000ae4       0x40 c:/users/erth0001/user/gnuarmeclipse_photon/eclipse/gnu mcu eclipse/arm embedded gcc/bin/../lib/gcc/arm-none-eabi/7.3.1/../../../../arm-none-eabi/lib/thumb/v7e-m/fpv4-sp/hard\libg_nano.a(lib_a-nano-vfscanf_float.o)
 .debug_frame   0x0000000000000b24       0x74 c:/users/erth0001/user/gnuarmeclipse_photon/eclipse/gnu mcu eclipse/arm embedded gcc/bin/../lib/gcc/arm-none-eabi/7.3.1/../../../../arm-none-eabi/lib/thumb/v7e-m/fpv4-sp/hard\libg_nano.a(lib_a-printf.o)
 .debug_frame   0x0000000000000b98       0x20 c:/users/erth0001/user/gnuarmeclipse_photon/eclipse/gnu mcu eclipse/arm embedded gcc/bin/../lib/gcc/arm-none-eabi/7.3.1/../../../../arm-none-eabi/lib/thumb/v7e-m/fpv4-sp/hard\libg_nano.a(lib_a-sf_nan.o)
 .debug_frame   0x0000000000000bb8       0x6c c:/users/erth0001/user/gnuarmeclipse_photon/eclipse/gnu mcu eclipse/arm embedded gcc/bin/../lib/gcc/arm-none-eabi/7.3.1/../../../../arm-none-eabi/lib/thumb/v7e-m/fpv4-sp/hard\libg_nano.a(lib_a-sprintf.o)
 .debug_frame   0x0000000000000c24      0x12c c:/users/erth0001/user/gnuarmeclipse_photon/eclipse/gnu mcu eclipse/arm embedded gcc/bin/../lib/gcc/arm-none-eabi/7.3.1/../../../../arm-none-eabi/lib/thumb/v7e-m/fpv4-sp/hard\libg_nano.a(lib_a-strtod.o)
 .debug_frame   0x0000000000000d50       0x84 c:/users/erth0001/user/gnuarmeclipse_photon/eclipse/gnu mcu eclipse/arm embedded gcc/bin/../lib/gcc/arm-none-eabi/7.3.1/../../../../arm-none-eabi/lib/thumb/v7e-m/fpv4-sp/hard\libg_nano.a(lib_a-strtol.o)
 .debug_frame   0x0000000000000dd4       0x70 c:/users/erth0001/user/gnuarmeclipse_photon/eclipse/gnu mcu eclipse/arm embedded gcc/bin/../lib/gcc/arm-none-eabi/7.3.1/../../../../arm-none-eabi/lib/thumb/v7e-m/fpv4-sp/hard\libg_nano.a(lib_a-dtoa.o)
 .debug_frame   0x0000000000000e44      0x11c c:/users/erth0001/user/gnuarmeclipse_photon/eclipse/gnu mcu eclipse/arm embedded gcc/bin/../lib/gcc/arm-none-eabi/7.3.1/../../../../arm-none-eabi/lib/thumb/v7e-m/fpv4-sp/hard\libg_nano.a(lib_a-findfp.o)
 .debug_frame   0x0000000000000f60       0x54 c:/users/erth0001/user/gnuarmeclipse_photon/eclipse/gnu mcu eclipse/arm embedded gcc/bin/../lib/gcc/arm-none-eabi/7.3.1/../../../../arm-none-eabi/lib/thumb/v7e-m/fpv4-sp/hard\libg_nano.a(lib_a-fwalk.o)
 .debug_frame   0x0000000000000fb4       0x70 c:/users/erth0001/user/gnuarmeclipse_photon/eclipse/gnu mcu eclipse/arm embedded gcc/bin/../lib/gcc/arm-none-eabi/7.3.1/../../../../arm-none-eabi/lib/thumb/v7e-m/fpv4-sp/hard\libg_nano.a(lib_a-gdtoa-gethex.o)
 .debug_frame   0x0000000000001024       0x74 c:/users/erth0001/user/gnuarmeclipse_photon/eclipse/gnu mcu eclipse/arm embedded gcc/bin/../lib/gcc/arm-none-eabi/7.3.1/../../../../arm-none-eabi/lib/thumb/v7e-m/fpv4-sp/hard\libg_nano.a(lib_a-gdtoa-hexnan.o)
 .debug_frame   0x0000000000001098       0x68 c:/users/erth0001/user/gnuarmeclipse_photon/eclipse/gnu mcu eclipse/arm embedded gcc/bin/../lib/gcc/arm-none-eabi/7.3.1/../../../../arm-none-eabi/lib/thumb/v7e-m/fpv4-sp/hard\libg_nano.a(lib_a-locale.o)
 .debug_frame   0x0000000000001100       0x40 c:/users/erth0001/user/gnuarmeclipse_photon/eclipse/gnu mcu eclipse/arm embedded gcc/bin/../lib/gcc/arm-none-eabi/7.3.1/../../../../arm-none-eabi/lib/thumb/v7e-m/fpv4-sp/hard\libg_nano.a(lib_a-localeconv.o)
 .debug_frame   0x0000000000001140       0x30 c:/users/erth0001/user/gnuarmeclipse_photon/eclipse/gnu mcu eclipse/arm embedded gcc/bin/../lib/gcc/arm-none-eabi/7.3.1/../../../../arm-none-eabi/lib/thumb/v7e-m/fpv4-sp/hard\libg_nano.a(lib_a-malloc.o)
 .debug_frame   0x0000000000001170       0x48 c:/users/erth0001/user/gnuarmeclipse_photon/eclipse/gnu mcu eclipse/arm embedded gcc/bin/../lib/gcc/arm-none-eabi/7.3.1/../../../../arm-none-eabi/lib/thumb/v7e-m/fpv4-sp/hard\libg_nano.a(lib_a-mbtowc_r.o)
 .debug_frame   0x00000000000011b8       0x28 c:/users/erth0001/user/gnuarmeclipse_photon/eclipse/gnu mcu eclipse/arm embedded gcc/bin/../lib/gcc/arm-none-eabi/7.3.1/../../../../arm-none-eabi/lib/thumb/v7e-m/fpv4-sp/hard\libg_nano.a(lib_a-memcpy-stub.o)
 .debug_frame   0x00000000000011e0      0x244 c:/users/erth0001/user/gnuarmeclipse_photon/eclipse/gnu mcu eclipse/arm embedded gcc/bin/../lib/gcc/arm-none-eabi/7.3.1/../../../../arm-none-eabi/lib/thumb/v7e-m/fpv4-sp/hard\libg_nano.a(lib_a-mprec.o)
 .debug_frame   0x0000000000001424       0x2c c:/users/erth0001/user/gnuarmeclipse_photon/eclipse/gnu mcu eclipse/arm embedded gcc/bin/../lib/gcc/arm-none-eabi/7.3.1/../../../../arm-none-eabi/lib/thumb/v7e-m/fpv4-sp/hard\libg_nano.a(lib_a-nano-callocr.o)
 .debug_frame   0x0000000000001450       0x38 c:/users/erth0001/user/gnuarmeclipse_photon/eclipse/gnu mcu eclipse/arm embedded gcc/bin/../lib/gcc/arm-none-eabi/7.3.1/../../../../arm-none-eabi/lib/thumb/v7e-m/fpv4-sp/hard\libg_nano.a(lib_a-nano-freer.o)
 .debug_frame   0x0000000000001488       0x2c c:/users/erth0001/user/gnuarmeclipse_photon/eclipse/gnu mcu eclipse/arm embedded gcc/bin/../lib/gcc/arm-none-eabi/7.3.1/../../../../arm-none-eabi/lib/thumb/v7e-m/fpv4-sp/hard\libg_nano.a(lib_a-nano-mallocr.o)
 .debug_frame   0x00000000000014b4       0x90 c:/users/erth0001/user/gnuarmeclipse_photon/eclipse/gnu mcu eclipse/arm embedded gcc/bin/../lib/gcc/arm-none-eabi/7.3.1/../../../../arm-none-eabi/lib/thumb/v7e-m/fpv4-sp/hard\libg_nano.a(lib_a-nano-svfprintf.o)
 .debug_frame   0x0000000000001544       0xac c:/users/erth0001/user/gnuarmeclipse_photon/eclipse/gnu mcu eclipse/arm embedded gcc/bin/../lib/gcc/arm-none-eabi/7.3.1/../../../../arm-none-eabi/lib/thumb/v7e-m/fpv4-sp/hard\libg_nano.a(lib_a-nano-vfprintf.o)
 .debug_frame   0x00000000000015f0       0x2c c:/users/erth0001/user/gnuarmeclipse_photon/eclipse/gnu mcu eclipse/arm embedded gcc/bin/../lib/gcc/arm-none-eabi/7.3.1/../../../../arm-none-eabi/lib/thumb/v7e-m/fpv4-sp/hard\libg_nano.a(lib_a-sbrkr.o)
 .debug_frame   0x000000000000161c       0x88 c:/users/erth0001/user/gnuarmeclipse_photon/eclipse/gnu mcu eclipse/arm embedded gcc/bin/../lib/gcc/arm-none-eabi/7.3.1/../../../../arm-none-eabi/lib/thumb/v7e-m/fpv4-sp/hard\libg_nano.a(lib_a-stdio.o)
 .debug_frame   0x00000000000016a4       0x28 c:/users/erth0001/user/gnuarmeclipse_photon/eclipse/gnu mcu eclipse/arm embedded gcc/bin/../lib/gcc/arm-none-eabi/7.3.1/../../../../arm-none-eabi/lib/thumb/v7e-m/fpv4-sp/hard\libg_nano.a(lib_a-strncmp.o)
 .debug_frame   0x00000000000016cc       0x40 c:/users/erth0001/user/gnuarmeclipse_photon/eclipse/gnu mcu eclipse/arm embedded gcc/bin/../lib/gcc/arm-none-eabi/7.3.1/../../../../arm-none-eabi/lib/thumb/v7e-m/fpv4-sp/hard\libg_nano.a(lib_a-wbuf.o)
 .debug_frame   0x000000000000170c       0x3c c:/users/erth0001/user/gnuarmeclipse_photon/eclipse/gnu mcu eclipse/arm embedded gcc/bin/../lib/gcc/arm-none-eabi/7.3.1/../../../../arm-none-eabi/lib/thumb/v7e-m/fpv4-sp/hard\libg_nano.a(lib_a-wctomb_r.o)
 .debug_frame   0x0000000000001748       0x2c c:/users/erth0001/user/gnuarmeclipse_photon/eclipse/gnu mcu eclipse/arm embedded gcc/bin/../lib/gcc/arm-none-eabi/7.3.1/../../../../arm-none-eabi/lib/thumb/v7e-m/fpv4-sp/hard\libg_nano.a(lib_a-writer.o)
 .debug_frame   0x0000000000001774       0x2c c:/users/erth0001/user/gnuarmeclipse_photon/eclipse/gnu mcu eclipse/arm embedded gcc/bin/../lib/gcc/arm-none-eabi/7.3.1/../../../../arm-none-eabi/lib/thumb/v7e-m/fpv4-sp/hard\libg_nano.a(lib_a-wsetup.o)
 .debug_frame   0x00000000000017a0       0x2c c:/users/erth0001/user/gnuarmeclipse_photon/eclipse/gnu mcu eclipse/arm embedded gcc/bin/../lib/gcc/arm-none-eabi/7.3.1/../../../../arm-none-eabi/lib/thumb/v7e-m/fpv4-sp/hard\libg_nano.a(lib_a-closer.o)
 .debug_frame   0x00000000000017cc       0x68 c:/users/erth0001/user/gnuarmeclipse_photon/eclipse/gnu mcu eclipse/arm embedded gcc/bin/../lib/gcc/arm-none-eabi/7.3.1/../../../../arm-none-eabi/lib/thumb/v7e-m/fpv4-sp/hard\libg_nano.a(lib_a-fflush.o)
 .debug_frame   0x0000000000001834       0x2c c:/users/erth0001/user/gnuarmeclipse_photon/eclipse/gnu mcu eclipse/arm embedded gcc/bin/../lib/gcc/arm-none-eabi/7.3.1/../../../../arm-none-eabi/lib/thumb/v7e-m/fpv4-sp/hard\libg_nano.a(lib_a-lseekr.o)
 .debug_frame   0x0000000000001860       0x58 c:/users/erth0001/user/gnuarmeclipse_photon/eclipse/gnu mcu eclipse/arm embedded gcc/bin/../lib/gcc/arm-none-eabi/7.3.1/../../../../arm-none-eabi/lib/thumb/v7e-m/fpv4-sp/hard\libg_nano.a(lib_a-makebuf.o)
 .debug_frame   0x00000000000018b8       0x28 c:/users/erth0001/user/gnuarmeclipse_photon/eclipse/gnu mcu eclipse/arm embedded gcc/bin/../lib/gcc/arm-none-eabi/7.3.1/../../../../arm-none-eabi/lib/thumb/v7e-m/fpv4-sp/hard\libg_nano.a(lib_a-memmove.o)
 .debug_frame   0x00000000000018e0       0x30 c:/users/erth0001/user/gnuarmeclipse_photon/eclipse/gnu mcu eclipse/arm embedded gcc/bin/../lib/gcc/arm-none-eabi/7.3.1/../../../../arm-none-eabi/lib/thumb/v7e-m/fpv4-sp/hard\libg_nano.a(lib_a-mlock.o)
 .debug_frame   0x0000000000001910       0x3c c:/users/erth0001/user/gnuarmeclipse_photon/eclipse/gnu mcu eclipse/arm embedded gcc/bin/../lib/gcc/arm-none-eabi/7.3.1/../../../../arm-none-eabi/lib/thumb/v7e-m/fpv4-sp/hard\libg_nano.a(lib_a-nano-reallocr.o)
 .debug_frame   0x000000000000194c       0x2c c:/users/erth0001/user/gnuarmeclipse_photon/eclipse/gnu mcu eclipse/arm embedded gcc/bin/../lib/gcc/arm-none-eabi/7.3.1/../../../../arm-none-eabi/lib/thumb/v7e-m/fpv4-sp/hard\libg_nano.a(lib_a-readr.o)
 .debug_frame   0x0000000000001978       0x5c c:/users/erth0001/user/gnuarmeclipse_photon/eclipse/gnu mcu eclipse/arm embedded gcc/bin/../lib/gcc/arm-none-eabi/7.3.1/../../../../arm-none-eabi/lib/thumb/v7e-m/fpv4-sp/hard\libg_nano.a(lib_a-reent.o)
 .debug_frame   0x00000000000019d4       0x2c c:/users/erth0001/user/gnuarmeclipse_photon/eclipse/gnu mcu eclipse/arm embedded gcc/bin/../lib/gcc/arm-none-eabi/7.3.1/../../../../arm-none-eabi/lib/thumb/v7e-m/fpv4-sp/hard\libg_nano.a(lib_a-fstatr.o)
 .debug_frame   0x0000000000001a00       0x2c c:/users/erth0001/user/gnuarmeclipse_photon/eclipse/gnu mcu eclipse/arm embedded gcc/bin/../lib/gcc/arm-none-eabi/7.3.1/../../../../arm-none-eabi/lib/thumb/v7e-m/fpv4-sp/hard\libg_nano.a(lib_a-isattyr.o)
 .debug_frame   0x0000000000001a2c       0x20 c:/users/erth0001/user/gnuarmeclipse_photon/eclipse/gnu mcu eclipse/arm embedded gcc/bin/../lib/gcc/arm-none-eabi/7.3.1/../../../../arm-none-eabi/lib/thumb/v7e-m/fpv4-sp/hard\libg_nano.a(lib_a-nano-msizer.o)
 .debug_frame   0x0000000000001a4c       0xac c:/users/erth0001/user/gnuarmeclipse_photon/eclipse/gnu mcu eclipse/arm embedded gcc/bin/../lib/gcc/arm-none-eabi/7.3.1/thumb/v7e-m/fpv4-sp/hard\libgcc.a(_arm_addsubdf3.o)
 .debug_frame   0x0000000000001af8       0x50 c:/users/erth0001/user/gnuarmeclipse_photon/eclipse/gnu mcu eclipse/arm embedded gcc/bin/../lib/gcc/arm-none-eabi/7.3.1/thumb/v7e-m/fpv4-sp/hard\libgcc.a(_arm_muldivdf3.o)
 .debug_frame   0x0000000000001b48       0xc4 c:/users/erth0001/user/gnuarmeclipse_photon/eclipse/gnu mcu eclipse/arm embedded gcc/bin/../lib/gcc/arm-none-eabi/7.3.1/thumb/v7e-m/fpv4-sp/hard\libgcc.a(_arm_cmpdf2.o)
 .debug_frame   0x0000000000001c0c       0x20 c:/users/erth0001/user/gnuarmeclipse_photon/eclipse/gnu mcu eclipse/arm embedded gcc/bin/../lib/gcc/arm-none-eabi/7.3.1/thumb/v7e-m/fpv4-sp/hard\libgcc.a(_arm_unorddf2.o)
 .debug_frame   0x0000000000001c2c       0x24 c:/users/erth0001/user/gnuarmeclipse_photon/eclipse/gnu mcu eclipse/arm embedded gcc/bin/../lib/gcc/arm-none-eabi/7.3.1/thumb/v7e-m/fpv4-sp/hard\libgcc.a(_arm_fixdfsi.o)
 .debug_frame   0x0000000000001c50       0x24 c:/users/erth0001/user/gnuarmeclipse_photon/eclipse/gnu mcu eclipse/arm embedded gcc/bin/../lib/gcc/arm-none-eabi/7.3.1/thumb/v7e-m/fpv4-sp/hard\libgcc.a(_arm_fixunsdfsi.o)
 .debug_frame   0x0000000000001c74      0x3ac c:/users/erth0001/user/gnuarmeclipse_photon/eclipse/gnu mcu eclipse/arm embedded gcc/bin/../lib/gcc/arm-none-eabi/7.3.1/../../../../arm-none-eabi/lib/thumb/v7e-m/fpv4-sp/hard\librdimon_nano.a(rdimon-syscalls.o)
 .debug_frame   0x0000000000002020       0x20 c:/users/erth0001/user/gnuarmeclipse_photon/eclipse/gnu mcu eclipse/arm embedded gcc/bin/../lib/gcc/arm-none-eabi/7.3.1/../../../../arm-none-eabi/lib/thumb/v7e-m/fpv4-sp/hard\libc_nano.a(lib_a-errno.o)

.debug_str      0x0000000000000000   0x1c564e
 *(.debug_str)
 .debug_str     0x0000000000000000       0xa4 ./system/include/S6E2CCA/startup/startup_s6e2cc.o
 .debug_str     0x00000000000000a4   0x1b6bab ./system/include/S6E2CCA/PDL/dstc.o
                                     0x1b6e27 (size before relaxing)
 .debug_str     0x00000000001b6c4f     0x1da1 ./system/include/S6E2CCA/PDL/i2s.o
                                     0x1b5b16 (size before relaxing)
 .debug_str     0x00000000001b89f0     0x5887 ./system/include/S6E2CCA/PDL/interrupts_fm4_type_b.o
                                     0x1bb699 (size before relaxing)
 .debug_str     0x00000000001be277     0x31bc ./system/include/S6E2CCA/PDL/system_s6e2cc.o
                                     0x1b0b68 (size before relaxing)
 .debug_str     0x00000000001c1433     0x421b ./src/Examples/Semihosting.o
                                       0x73b3 (size before relaxing)

.debug_loc
 *(.debug_loc)

.debug_macinfo
 *(.debug_macinfo)

.debug_weaknames
 *(.debug_weaknames)

.debug_funcnames
 *(.debug_funcnames)

.debug_typenames
 *(.debug_typenames)

.debug_varnames
 *(.debug_varnames)

.note.gnu.arm.ident
 *(.note.gnu.arm.ident)

.ARM.attributes
                0x0000000000000000       0x37
 *(.ARM.attributes)
 .ARM.attributes
                0x0000000000000000       0x39 ./system/include/platform/FM4_slider_interface.o
 .ARM.attributes
                0x0000000000000039       0x39 ./system/include/platform/platform.o
 .ARM.attributes
                0x0000000000000072       0x39 ./system/include/platform/utils.o
 .ARM.attributes
                0x00000000000000ab       0x25 ./system/include/S6E2CCA/startup/startup_s6e2cc.o
 .ARM.attributes
                0x00000000000000d0       0x39 ./system/include/S6E2CCA/PDL/clk.o
 .ARM.attributes
                0x0000000000000109       0x39 ./system/include/S6E2CCA/PDL/dstc.o
 .ARM.attributes
                0x0000000000000142       0x39 ./system/include/S6E2CCA/PDL/i2s.o
 .ARM.attributes
                0x000000000000017b       0x39 ./system/include/S6E2CCA/PDL/interrupts_fm4_type_b.o
 .ARM.attributes
                0x00000000000001b4       0x39 ./system/include/S6E2CCA/PDL/mfs.o
 .ARM.attributes
                0x00000000000001ed       0x39 ./system/include/S6E2CCA/PDL/pdl.o
 .ARM.attributes
                0x0000000000000226       0x39 ./system/include/S6E2CCA/PDL/system_s6e2cc.o
 .ARM.attributes
                0x000000000000025f       0x39 ./system/include/S6E2CCA/PDL/wm8731.o
 .ARM.attributes
                0x0000000000000298       0x39 ./src/Examples/Semihosting.o
 .ARM.attributes
                0x00000000000002d1       0x22 c:/users/erth0001/user/gnuarmeclipse_photon/eclipse/gnu mcu eclipse/arm embedded gcc/bin/../lib/gcc/arm-none-eabi/7.3.1/thumb/v7e-m/fpv4-sp/hard\libgcc.a(_arm_truncdfsf2.o)
 .ARM.attributes
                0x00000000000002f3       0x34 c:/users/erth0001/user/gnuarmeclipse_photon/eclipse/gnu mcu eclipse/arm embedded gcc/bin/../lib/gcc/arm-none-eabi/7.3.1/../../../../arm-none-eabi/lib/thumb/v7e-m/fpv4-sp/hard\libg_nano.a(lib_a-atof.o)
 .ARM.attributes
                0x0000000000000327       0x34 c:/users/erth0001/user/gnuarmeclipse_photon/eclipse/gnu mcu eclipse/arm embedded gcc/bin/../lib/gcc/arm-none-eabi/7.3.1/../../../../arm-none-eabi/lib/thumb/v7e-m/fpv4-sp/hard\libg_nano.a(lib_a-atoi.o)
 .ARM.attributes
                0x000000000000035b       0x34 c:/users/erth0001/user/gnuarmeclipse_photon/eclipse/gnu mcu eclipse/arm embedded gcc/bin/../lib/gcc/arm-none-eabi/7.3.1/../../../../arm-none-eabi/lib/thumb/v7e-m/fpv4-sp/hard\libg_nano.a(lib_a-memset.o)
 .ARM.attributes
                0x000000000000038f       0x34 c:/users/erth0001/user/gnuarmeclipse_photon/eclipse/gnu mcu eclipse/arm embedded gcc/bin/../lib/gcc/arm-none-eabi/7.3.1/../../../../arm-none-eabi/lib/thumb/v7e-m/fpv4-sp/hard\libg_nano.a(lib_a-nano-vfprintf_float.o)
 .ARM.attributes
                0x00000000000003c3       0x34 c:/users/erth0001/user/gnuarmeclipse_photon/eclipse/gnu mcu eclipse/arm embedded gcc/bin/../lib/gcc/arm-none-eabi/7.3.1/../../../../arm-none-eabi/lib/thumb/v7e-m/fpv4-sp/hard\libg_nano.a(lib_a-nano-vfprintf_i.o)
 .ARM.attributes
                0x00000000000003f7       0x34 c:/users/erth0001/user/gnuarmeclipse_photon/eclipse/gnu mcu eclipse/arm embedded gcc/bin/../lib/gcc/arm-none-eabi/7.3.1/../../../../arm-none-eabi/lib/thumb/v7e-m/fpv4-sp/hard\libg_nano.a(lib_a-nano-vfscanf_float.o)
 .ARM.attributes
                0x000000000000042b       0x34 c:/users/erth0001/user/gnuarmeclipse_photon/eclipse/gnu mcu eclipse/arm embedded gcc/bin/../lib/gcc/arm-none-eabi/7.3.1/../../../../arm-none-eabi/lib/thumb/v7e-m/fpv4-sp/hard\libg_nano.a(lib_a-printf.o)
 .ARM.attributes
                0x000000000000045f       0x34 c:/users/erth0001/user/gnuarmeclipse_photon/eclipse/gnu mcu eclipse/arm embedded gcc/bin/../lib/gcc/arm-none-eabi/7.3.1/../../../../arm-none-eabi/lib/thumb/v7e-m/fpv4-sp/hard\libg_nano.a(lib_a-sf_nan.o)
 .ARM.attributes
                0x0000000000000493       0x34 c:/users/erth0001/user/gnuarmeclipse_photon/eclipse/gnu mcu eclipse/arm embedded gcc/bin/../lib/gcc/arm-none-eabi/7.3.1/../../../../arm-none-eabi/lib/thumb/v7e-m/fpv4-sp/hard\libg_nano.a(lib_a-sprintf.o)
 .ARM.attributes
                0x00000000000004c7       0x1b c:/users/erth0001/user/gnuarmeclipse_photon/eclipse/gnu mcu eclipse/arm embedded gcc/bin/../lib/gcc/arm-none-eabi/7.3.1/../../../../arm-none-eabi/lib/thumb/v7e-m/fpv4-sp/hard\libg_nano.a(lib_a-strlen.o)
 .ARM.attributes
                0x00000000000004e2       0x34 c:/users/erth0001/user/gnuarmeclipse_photon/eclipse/gnu mcu eclipse/arm embedded gcc/bin/../lib/gcc/arm-none-eabi/7.3.1/../../../../arm-none-eabi/lib/thumb/v7e-m/fpv4-sp/hard\libg_nano.a(lib_a-strtod.o)
 .ARM.attributes
                0x0000000000000516       0x34 c:/users/erth0001/user/gnuarmeclipse_photon/eclipse/gnu mcu eclipse/arm embedded gcc/bin/../lib/gcc/arm-none-eabi/7.3.1/../../../../arm-none-eabi/lib/thumb/v7e-m/fpv4-sp/hard\libg_nano.a(lib_a-strtol.o)
 .ARM.attributes
                0x000000000000054a       0x34 c:/users/erth0001/user/gnuarmeclipse_photon/eclipse/gnu mcu eclipse/arm embedded gcc/bin/../lib/gcc/arm-none-eabi/7.3.1/../../../../arm-none-eabi/lib/thumb/v7e-m/fpv4-sp/hard\libg_nano.a(lib_a-dtoa.o)
 .ARM.attributes
                0x000000000000057e       0x34 c:/users/erth0001/user/gnuarmeclipse_photon/eclipse/gnu mcu eclipse/arm embedded gcc/bin/../lib/gcc/arm-none-eabi/7.3.1/../../../../arm-none-eabi/lib/thumb/v7e-m/fpv4-sp/hard\libg_nano.a(lib_a-findfp.o)
 .ARM.attributes
                0x00000000000005b2       0x34 c:/users/erth0001/user/gnuarmeclipse_photon/eclipse/gnu mcu eclipse/arm embedded gcc/bin/../lib/gcc/arm-none-eabi/7.3.1/../../../../arm-none-eabi/lib/thumb/v7e-m/fpv4-sp/hard\libg_nano.a(lib_a-fwalk.o)
 .ARM.attributes
                0x00000000000005e6       0x34 c:/users/erth0001/user/gnuarmeclipse_photon/eclipse/gnu mcu eclipse/arm embedded gcc/bin/../lib/gcc/arm-none-eabi/7.3.1/../../../../arm-none-eabi/lib/thumb/v7e-m/fpv4-sp/hard\libg_nano.a(lib_a-gdtoa-gethex.o)
 .ARM.attributes
                0x000000000000061a       0x34 c:/users/erth0001/user/gnuarmeclipse_photon/eclipse/gnu mcu eclipse/arm embedded gcc/bin/../lib/gcc/arm-none-eabi/7.3.1/../../../../arm-none-eabi/lib/thumb/v7e-m/fpv4-sp/hard\libg_nano.a(lib_a-gdtoa-hexnan.o)
 .ARM.attributes
                0x000000000000064e       0x34 c:/users/erth0001/user/gnuarmeclipse_photon/eclipse/gnu mcu eclipse/arm embedded gcc/bin/../lib/gcc/arm-none-eabi/7.3.1/../../../../arm-none-eabi/lib/thumb/v7e-m/fpv4-sp/hard\libg_nano.a(lib_a-impure.o)
 .ARM.attributes
                0x0000000000000682       0x34 c:/users/erth0001/user/gnuarmeclipse_photon/eclipse/gnu mcu eclipse/arm embedded gcc/bin/../lib/gcc/arm-none-eabi/7.3.1/../../../../arm-none-eabi/lib/thumb/v7e-m/fpv4-sp/hard\libg_nano.a(lib_a-locale.o)
 .ARM.attributes
                0x00000000000006b6       0x34 c:/users/erth0001/user/gnuarmeclipse_photon/eclipse/gnu mcu eclipse/arm embedded gcc/bin/../lib/gcc/arm-none-eabi/7.3.1/../../../../arm-none-eabi/lib/thumb/v7e-m/fpv4-sp/hard\libg_nano.a(lib_a-localeconv.o)
 .ARM.attributes
                0x00000000000006ea       0x34 c:/users/erth0001/user/gnuarmeclipse_photon/eclipse/gnu mcu eclipse/arm embedded gcc/bin/../lib/gcc/arm-none-eabi/7.3.1/../../../../arm-none-eabi/lib/thumb/v7e-m/fpv4-sp/hard\libg_nano.a(lib_a-malloc.o)
 .ARM.attributes
                0x000000000000071e       0x34 c:/users/erth0001/user/gnuarmeclipse_photon/eclipse/gnu mcu eclipse/arm embedded gcc/bin/../lib/gcc/arm-none-eabi/7.3.1/../../../../arm-none-eabi/lib/thumb/v7e-m/fpv4-sp/hard\libg_nano.a(lib_a-mbtowc_r.o)
 .ARM.attributes
                0x0000000000000752       0x20 c:/users/erth0001/user/gnuarmeclipse_photon/eclipse/gnu mcu eclipse/arm embedded gcc/bin/../lib/gcc/arm-none-eabi/7.3.1/../../../../arm-none-eabi/lib/thumb/v7e-m/fpv4-sp/hard\libg_nano.a(lib_a-memchr.o)
 .ARM.attributes
                0x0000000000000772       0x34 c:/users/erth0001/user/gnuarmeclipse_photon/eclipse/gnu mcu eclipse/arm embedded gcc/bin/../lib/gcc/arm-none-eabi/7.3.1/../../../../arm-none-eabi/lib/thumb/v7e-m/fpv4-sp/hard\libg_nano.a(lib_a-memcpy-stub.o)
 .ARM.attributes
                0x00000000000007a6       0x34 c:/users/erth0001/user/gnuarmeclipse_photon/eclipse/gnu mcu eclipse/arm embedded gcc/bin/../lib/gcc/arm-none-eabi/7.3.1/../../../../arm-none-eabi/lib/thumb/v7e-m/fpv4-sp/hard\libg_nano.a(lib_a-mprec.o)
 .ARM.attributes
                0x00000000000007da       0x34 c:/users/erth0001/user/gnuarmeclipse_photon/eclipse/gnu mcu eclipse/arm embedded gcc/bin/../lib/gcc/arm-none-eabi/7.3.1/../../../../arm-none-eabi/lib/thumb/v7e-m/fpv4-sp/hard\libg_nano.a(lib_a-nano-callocr.o)
 .ARM.attributes
                0x000000000000080e       0x34 c:/users/erth0001/user/gnuarmeclipse_photon/eclipse/gnu mcu eclipse/arm embedded gcc/bin/../lib/gcc/arm-none-eabi/7.3.1/../../../../arm-none-eabi/lib/thumb/v7e-m/fpv4-sp/hard\libg_nano.a(lib_a-nano-freer.o)
 .ARM.attributes
                0x0000000000000842       0x34 c:/users/erth0001/user/gnuarmeclipse_photon/eclipse/gnu mcu eclipse/arm embedded gcc/bin/../lib/gcc/arm-none-eabi/7.3.1/../../../../arm-none-eabi/lib/thumb/v7e-m/fpv4-sp/hard\libg_nano.a(lib_a-nano-mallocr.o)
 .ARM.attributes
                0x0000000000000876       0x34 c:/users/erth0001/user/gnuarmeclipse_photon/eclipse/gnu mcu eclipse/arm embedded gcc/bin/../lib/gcc/arm-none-eabi/7.3.1/../../../../arm-none-eabi/lib/thumb/v7e-m/fpv4-sp/hard\libg_nano.a(lib_a-nano-svfprintf.o)
 .ARM.attributes
                0x00000000000008aa       0x34 c:/users/erth0001/user/gnuarmeclipse_photon/eclipse/gnu mcu eclipse/arm embedded gcc/bin/../lib/gcc/arm-none-eabi/7.3.1/../../../../arm-none-eabi/lib/thumb/v7e-m/fpv4-sp/hard\libg_nano.a(lib_a-nano-vfprintf.o)
 .ARM.attributes
                0x00000000000008de       0x34 c:/users/erth0001/user/gnuarmeclipse_photon/eclipse/gnu mcu eclipse/arm embedded gcc/bin/../lib/gcc/arm-none-eabi/7.3.1/../../../../arm-none-eabi/lib/thumb/v7e-m/fpv4-sp/hard\libg_nano.a(lib_a-sbrkr.o)
 .ARM.attributes
                0x0000000000000912       0x34 c:/users/erth0001/user/gnuarmeclipse_photon/eclipse/gnu mcu eclipse/arm embedded gcc/bin/../lib/gcc/arm-none-eabi/7.3.1/../../../../arm-none-eabi/lib/thumb/v7e-m/fpv4-sp/hard\libg_nano.a(lib_a-stdio.o)
 .ARM.attributes
                0x0000000000000946       0x20 c:/users/erth0001/user/gnuarmeclipse_photon/eclipse/gnu mcu eclipse/arm embedded gcc/bin/../lib/gcc/arm-none-eabi/7.3.1/../../../../arm-none-eabi/lib/thumb/v7e-m/fpv4-sp/hard\libg_nano.a(lib_a-strcmp.o)
 .ARM.attributes
                0x0000000000000966       0x34 c:/users/erth0001/user/gnuarmeclipse_photon/eclipse/gnu mcu eclipse/arm embedded gcc/bin/../lib/gcc/arm-none-eabi/7.3.1/../../../../arm-none-eabi/lib/thumb/v7e-m/fpv4-sp/hard\libg_nano.a(lib_a-strncmp.o)
 .ARM.attributes
                0x000000000000099a       0x34 c:/users/erth0001/user/gnuarmeclipse_photon/eclipse/gnu mcu eclipse/arm embedded gcc/bin/../lib/gcc/arm-none-eabi/7.3.1/../../../../arm-none-eabi/lib/thumb/v7e-m/fpv4-sp/hard\libg_nano.a(lib_a-wbuf.o)
 .ARM.attributes
                0x00000000000009ce       0x34 c:/users/erth0001/user/gnuarmeclipse_photon/eclipse/gnu mcu eclipse/arm embedded gcc/bin/../lib/gcc/arm-none-eabi/7.3.1/../../../../arm-none-eabi/lib/thumb/v7e-m/fpv4-sp/hard\libg_nano.a(lib_a-wctomb_r.o)
 .ARM.attributes
                0x0000000000000a02       0x34 c:/users/erth0001/user/gnuarmeclipse_photon/eclipse/gnu mcu eclipse/arm embedded gcc/bin/../lib/gcc/arm-none-eabi/7.3.1/../../../../arm-none-eabi/lib/thumb/v7e-m/fpv4-sp/hard\libg_nano.a(lib_a-writer.o)
 .ARM.attributes
                0x0000000000000a36       0x34 c:/users/erth0001/user/gnuarmeclipse_photon/eclipse/gnu mcu eclipse/arm embedded gcc/bin/../lib/gcc/arm-none-eabi/7.3.1/../../../../arm-none-eabi/lib/thumb/v7e-m/fpv4-sp/hard\libg_nano.a(lib_a-wsetup.o)
 .ARM.attributes
                0x0000000000000a6a       0x34 c:/users/erth0001/user/gnuarmeclipse_photon/eclipse/gnu mcu eclipse/arm embedded gcc/bin/../lib/gcc/arm-none-eabi/7.3.1/../../../../arm-none-eabi/lib/thumb/v7e-m/fpv4-sp/hard\libg_nano.a(lib_a-closer.o)
 .ARM.attributes
                0x0000000000000a9e       0x34 c:/users/erth0001/user/gnuarmeclipse_photon/eclipse/gnu mcu eclipse/arm embedded gcc/bin/../lib/gcc/arm-none-eabi/7.3.1/../../../../arm-none-eabi/lib/thumb/v7e-m/fpv4-sp/hard\libg_nano.a(lib_a-ctype_.o)
 .ARM.attributes
                0x0000000000000ad2       0x34 c:/users/erth0001/user/gnuarmeclipse_photon/eclipse/gnu mcu eclipse/arm embedded gcc/bin/../lib/gcc/arm-none-eabi/7.3.1/../../../../arm-none-eabi/lib/thumb/v7e-m/fpv4-sp/hard\libg_nano.a(lib_a-fflush.o)
 .ARM.attributes
                0x0000000000000b06       0x34 c:/users/erth0001/user/gnuarmeclipse_photon/eclipse/gnu mcu eclipse/arm embedded gcc/bin/../lib/gcc/arm-none-eabi/7.3.1/../../../../arm-none-eabi/lib/thumb/v7e-m/fpv4-sp/hard\libg_nano.a(lib_a-fvwrite.o)
 .ARM.attributes
                0x0000000000000b3a       0x34 c:/users/erth0001/user/gnuarmeclipse_photon/eclipse/gnu mcu eclipse/arm embedded gcc/bin/../lib/gcc/arm-none-eabi/7.3.1/../../../../arm-none-eabi/lib/thumb/v7e-m/fpv4-sp/hard\libg_nano.a(lib_a-lseekr.o)
 .ARM.attributes
                0x0000000000000b6e       0x34 c:/users/erth0001/user/gnuarmeclipse_photon/eclipse/gnu mcu eclipse/arm embedded gcc/bin/../lib/gcc/arm-none-eabi/7.3.1/../../../../arm-none-eabi/lib/thumb/v7e-m/fpv4-sp/hard\libg_nano.a(lib_a-makebuf.o)
 .ARM.attributes
                0x0000000000000ba2       0x34 c:/users/erth0001/user/gnuarmeclipse_photon/eclipse/gnu mcu eclipse/arm embedded gcc/bin/../lib/gcc/arm-none-eabi/7.3.1/../../../../arm-none-eabi/lib/thumb/v7e-m/fpv4-sp/hard\libg_nano.a(lib_a-memmove.o)
 .ARM.attributes
                0x0000000000000bd6       0x34 c:/users/erth0001/user/gnuarmeclipse_photon/eclipse/gnu mcu eclipse/arm embedded gcc/bin/../lib/gcc/arm-none-eabi/7.3.1/../../../../arm-none-eabi/lib/thumb/v7e-m/fpv4-sp/hard\libg_nano.a(lib_a-mlock.o)
 .ARM.attributes
                0x0000000000000c0a       0x34 c:/users/erth0001/user/gnuarmeclipse_photon/eclipse/gnu mcu eclipse/arm embedded gcc/bin/../lib/gcc/arm-none-eabi/7.3.1/../../../../arm-none-eabi/lib/thumb/v7e-m/fpv4-sp/hard\libg_nano.a(lib_a-nano-reallocr.o)
 .ARM.attributes
                0x0000000000000c3e       0x34 c:/users/erth0001/user/gnuarmeclipse_photon/eclipse/gnu mcu eclipse/arm embedded gcc/bin/../lib/gcc/arm-none-eabi/7.3.1/../../../../arm-none-eabi/lib/thumb/v7e-m/fpv4-sp/hard\libg_nano.a(lib_a-readr.o)
 .ARM.attributes
                0x0000000000000c72       0x34 c:/users/erth0001/user/gnuarmeclipse_photon/eclipse/gnu mcu eclipse/arm embedded gcc/bin/../lib/gcc/arm-none-eabi/7.3.1/../../../../arm-none-eabi/lib/thumb/v7e-m/fpv4-sp/hard\libg_nano.a(lib_a-reent.o)
 .ARM.attributes
                0x0000000000000ca6       0x34 c:/users/erth0001/user/gnuarmeclipse_photon/eclipse/gnu mcu eclipse/arm embedded gcc/bin/../lib/gcc/arm-none-eabi/7.3.1/../../../../arm-none-eabi/lib/thumb/v7e-m/fpv4-sp/hard\libg_nano.a(lib_a-fstatr.o)
 .ARM.attributes
                0x0000000000000cda       0x34 c:/users/erth0001/user/gnuarmeclipse_photon/eclipse/gnu mcu eclipse/arm embedded gcc/bin/../lib/gcc/arm-none-eabi/7.3.1/../../../../arm-none-eabi/lib/thumb/v7e-m/fpv4-sp/hard\libg_nano.a(lib_a-isattyr.o)
 .ARM.attributes
                0x0000000000000d0e       0x34 c:/users/erth0001/user/gnuarmeclipse_photon/eclipse/gnu mcu eclipse/arm embedded gcc/bin/../lib/gcc/arm-none-eabi/7.3.1/../../../../arm-none-eabi/lib/thumb/v7e-m/fpv4-sp/hard\libg_nano.a(lib_a-nano-msizer.o)
 .ARM.attributes
                0x0000000000000d42       0x22 c:/users/erth0001/user/gnuarmeclipse_photon/eclipse/gnu mcu eclipse/arm embedded gcc/bin/../lib/gcc/arm-none-eabi/7.3.1/thumb/v7e-m/fpv4-sp/hard\libgcc.a(_arm_addsubdf3.o)
 .ARM.attributes
                0x0000000000000d64       0x22 c:/users/erth0001/user/gnuarmeclipse_photon/eclipse/gnu mcu eclipse/arm embedded gcc/bin/../lib/gcc/arm-none-eabi/7.3.1/thumb/v7e-m/fpv4-sp/hard\libgcc.a(_arm_muldivdf3.o)
 .ARM.attributes
                0x0000000000000d86       0x22 c:/users/erth0001/user/gnuarmeclipse_photon/eclipse/gnu mcu eclipse/arm embedded gcc/bin/../lib/gcc/arm-none-eabi/7.3.1/thumb/v7e-m/fpv4-sp/hard\libgcc.a(_arm_cmpdf2.o)
 .ARM.attributes
                0x0000000000000da8       0x22 c:/users/erth0001/user/gnuarmeclipse_photon/eclipse/gnu mcu eclipse/arm embedded gcc/bin/../lib/gcc/arm-none-eabi/7.3.1/thumb/v7e-m/fpv4-sp/hard\libgcc.a(_arm_unorddf2.o)
 .ARM.attributes
                0x0000000000000dca       0x22 c:/users/erth0001/user/gnuarmeclipse_photon/eclipse/gnu mcu eclipse/arm embedded gcc/bin/../lib/gcc/arm-none-eabi/7.3.1/thumb/v7e-m/fpv4-sp/hard\libgcc.a(_arm_fixdfsi.o)
 .ARM.attributes
                0x0000000000000dec       0x22 c:/users/erth0001/user/gnuarmeclipse_photon/eclipse/gnu mcu eclipse/arm embedded gcc/bin/../lib/gcc/arm-none-eabi/7.3.1/thumb/v7e-m/fpv4-sp/hard\libgcc.a(_arm_fixunsdfsi.o)
 .ARM.attributes
                0x0000000000000e0e       0x34 c:/users/erth0001/user/gnuarmeclipse_photon/eclipse/gnu mcu eclipse/arm embedded gcc/bin/../lib/gcc/arm-none-eabi/7.3.1/../../../../arm-none-eabi/lib/thumb/v7e-m/fpv4-sp/hard\librdimon_nano.a(rdimon-syscalls.o)
 .ARM.attributes
                0x0000000000000e42       0x34 c:/users/erth0001/user/gnuarmeclipse_photon/eclipse/gnu mcu eclipse/arm embedded gcc/bin/../lib/gcc/arm-none-eabi/7.3.1/../../../../arm-none-eabi/lib/thumb/v7e-m/fpv4-sp/hard\libc_nano.a(lib_a-errno.o)

/DISCARD/
 *(.note.GNU-stack)
OUTPUT(FM4_FilterLab_1_3_Template.elf elf32-littlearm)

.debug_ranges   0x0000000000000000      0x240
 .debug_ranges  0x0000000000000000       0x20 ./system/include/S6E2CCA/startup/startup_s6e2cc.o
 .debug_ranges  0x0000000000000020       0xd0 ./system/include/S6E2CCA/PDL/dstc.o
 .debug_ranges  0x00000000000000f0      0x108 ./system/include/S6E2CCA/PDL/i2s.o
 .debug_ranges  0x00000000000001f8       0x20 ./system/include/S6E2CCA/PDL/interrupts_fm4_type_b.o
 .debug_ranges  0x0000000000000218       0x18 ./system/include/S6E2CCA/PDL/system_s6e2cc.o
 .debug_ranges  0x0000000000000230       0x10 ./src/Examples/Semihosting.o

.debug_macro    0x0000000000000000      0xa8d
 .debug_macro   0x0000000000000000       0xd2 ./system/include/S6E2CCA/PDL/dstc.o
 .debug_macro   0x00000000000000d2      0x5c9 ./system/include/S6E2CCA/PDL/dstc.o
 .debug_macro   0x000000000000069b       0xd2 ./system/include/S6E2CCA/PDL/i2s.o
 .debug_macro   0x000000000000076d       0x1c ./system/include/S6E2CCA/PDL/i2s.o
 .debug_macro   0x0000000000000789       0xe1 ./system/include/S6E2CCA/PDL/interrupts_fm4_type_b.o
 .debug_macro   0x000000000000086a       0x8d ./system/include/S6E2CCA/PDL/system_s6e2cc.o
 .debug_macro   0x00000000000008f7      0x196 ./src/Examples/Semihosting.o

.comment        0x0000000000000000       0x71
 .comment       0x0000000000000000       0x71 ./system/include/S6E2CCA/PDL/dstc.o
                                         0x72 (size before relaxing)
 .comment       0x0000000000000071       0x72 ./system/include/S6E2CCA/PDL/i2s.o
 .comment       0x0000000000000071       0x72 ./system/include/S6E2CCA/PDL/interrupts_fm4_type_b.o
 .comment       0x0000000000000071       0x72 ./system/include/S6E2CCA/PDL/system_s6e2cc.o
 .comment       0x0000000000000071       0x72 ./src/Examples/Semihosting.o

Cross Reference Table

Symbol                                            File
ADC0_IRQHandler                                   ./system/include/S6E2CCA/startup/startup_s6e2cc.o
ADC1_IRQHandler                                   ./system/include/S6E2CCA/startup/startup_s6e2cc.o
ADC2_IRQHandler                                   ./system/include/S6E2CCA/startup/startup_s6e2cc.o
BT0_IRQHandler                                    ./system/include/S6E2CCA/startup/startup_s6e2cc.o
BT10_IRQHandler                                   ./system/include/S6E2CCA/startup/startup_s6e2cc.o
BT11_IRQHandler                                   ./system/include/S6E2CCA/startup/startup_s6e2cc.o
BT12_15_IRQHandler                                ./system/include/S6E2CCA/startup/startup_s6e2cc.o
BT1_IRQHandler                                    ./system/include/S6E2CCA/startup/startup_s6e2cc.o
BT2_IRQHandler                                    ./system/include/S6E2CCA/startup/startup_s6e2cc.o
BT3_IRQHandler                                    ./system/include/S6E2CCA/startup/startup_s6e2cc.o
BT4_IRQHandler                                    ./system/include/S6E2CCA/startup/startup_s6e2cc.o
BT5_IRQHandler                                    ./system/include/S6E2CCA/startup/startup_s6e2cc.o
BT6_IRQHandler                                    ./system/include/S6E2CCA/startup/startup_s6e2cc.o
BT7_IRQHandler                                    ./system/include/S6E2CCA/startup/startup_s6e2cc.o
BT8_IRQHandler                                    ./system/include/S6E2CCA/startup/startup_s6e2cc.o
BT9_IRQHandler                                    ./system/include/S6E2CCA/startup/startup_s6e2cc.o
BusFault_Handler                                  ./system/include/S6E2CCA/startup/startup_s6e2cc.o
CAN0_IRQHandler                                   ./system/include/S6E2CCA/startup/startup_s6e2cc.o
CAN1_CANFD0_IRQHandler                            ./system/include/S6E2CCA/startup/startup_s6e2cc.o
CSV_IRQHandler                                    ./system/include/S6E2CCA/startup/startup_s6e2cc.o
Clk_DisableMainClock                              ./system/include/S6E2CCA/PDL/clk.o
Clk_DisablePllClock                               ./system/include/S6E2CCA/PDL/clk.o
Clk_DisableSubClock                               ./system/include/S6E2CCA/PDL/clk.o
Clk_EnableMainClock                               ./system/include/S6E2CCA/PDL/clk.o
Clk_EnablePllClock                                ./system/include/S6E2CCA/PDL/clk.o
Clk_EnableSubClock                                ./system/include/S6E2CCA/PDL/clk.o
Clk_Init                                          ./system/include/S6E2CCA/PDL/clk.o
Clk_PeripheralClearReset                          ./system/include/S6E2CCA/PDL/clk.o
Clk_PeripheralClockDisable                        ./system/include/S6E2CCA/PDL/clk.o
Clk_PeripheralClockDisableAll                     ./system/include/S6E2CCA/PDL/clk.o
Clk_PeripheralClockEnable                         ./system/include/S6E2CCA/PDL/clk.o
                                                  ./system/include/platform/platform.o
Clk_PeripheralClockEnableAll                      ./system/include/S6E2CCA/PDL/clk.o
Clk_PeripheralGetClockState                       ./system/include/S6E2CCA/PDL/clk.o
Clk_PeripheralSetReset                            ./system/include/S6E2CCA/PDL/clk.o
Clk_SetSource                                     ./system/include/S6E2CCA/PDL/clk.o
CodecInit                                         ./system/include/platform/platform.o
DMAC0_IRQHandler                                  ./system/include/S6E2CCA/startup/startup_s6e2cc.o
DMAC1_IRQHandler                                  ./system/include/S6E2CCA/startup/startup_s6e2cc.o
DMAC2_IRQHandler                                  ./system/include/S6E2CCA/startup/startup_s6e2cc.o
DMAC3_IRQHandler                                  ./system/include/S6E2CCA/startup/startup_s6e2cc.o
DMAC4_IRQHandler                                  ./system/include/S6E2CCA/startup/startup_s6e2cc.o
DMAC5_IRQHandler                                  ./system/include/S6E2CCA/startup/startup_s6e2cc.o
DMAC6_IRQHandler                                  ./system/include/S6E2CCA/startup/startup_s6e2cc.o
DMAC7_IRQHandler                                  ./system/include/S6E2CCA/startup/startup_s6e2cc.o
DSTC_HW_IRQHandler                                ./system/include/S6E2CCA/PDL/interrupts_fm4_type_b.o
                                                  ./system/include/S6E2CCA/startup/startup_s6e2cc.o
DSTC_IRQHandler                                   ./system/include/S6E2CCA/startup/startup_s6e2cc.o
DT_IRQHandler                                     ./system/include/S6E2CCA/startup/startup_s6e2cc.o
DebugMon_Handler                                  ./system/include/S6E2CCA/startup/startup_s6e2cc.o
Default_Handler                                   ./system/include/S6E2CCA/startup/startup_s6e2cc.o
DstcInit                                          ./system/include/platform/platform.o
Dstc_ClearDreqenbBit                              ./system/include/S6E2CCA/PDL/dstc.o
Dstc_DeInit                                       ./system/include/S6E2CCA/PDL/dstc.o
Dstc_I2sIrqHandler                                ./system/include/S6E2CCA/PDL/dstc.o
                                                  ./system/include/S6E2CCA/PDL/interrupts_fm4_type_b.o
Dstc_Init                                         ./system/include/S6E2CCA/PDL/dstc.o
                                                  ./system/include/platform/platform.o
Dstc_IrqHandler                                   ./system/include/S6E2CCA/PDL/dstc.o
Dstc_ReadDqmsk                                    ./system/include/S6E2CCA/PDL/dstc.o
Dstc_ReadDreqenb                                  ./system/include/S6E2CCA/PDL/dstc.o
Dstc_ReadHwdesp                                   ./system/include/S6E2CCA/PDL/dstc.o
Dstc_ReadHwint                                    ./system/include/S6E2CCA/PDL/dstc.o
Dstc_ReadHwintBit                                 ./system/include/S6E2CCA/PDL/dstc.o
                                                  ./system/include/S6E2CCA/PDL/interrupts_fm4_type_b.o
Dstc_ReleaseStandBy                               ./system/include/S6E2CCA/PDL/dstc.o
                                                  ./system/include/platform/platform.o
Dstc_SetCommand                                   ./system/include/S6E2CCA/PDL/dstc.o
                                                  ./system/include/platform/platform.o
Dstc_SetDqmskclr                                  ./system/include/S6E2CCA/PDL/dstc.o
Dstc_SetDqmskclrBit                               ./system/include/S6E2CCA/PDL/dstc.o
Dstc_SetDreqenb                                   ./system/include/S6E2CCA/PDL/dstc.o
Dstc_SetDreqenbBit                                ./system/include/S6E2CCA/PDL/dstc.o
                                                  ./system/include/platform/platform.o
Dstc_SetHwdesp                                    ./system/include/S6E2CCA/PDL/dstc.o
                                                  ./system/include/platform/platform.o
Dstc_SetHwintclr                                  ./system/include/S6E2CCA/PDL/dstc.o
Dstc_SetHwintclrBit                               ./system/include/S6E2CCA/PDL/dstc.o
                                                  ./system/include/platform/platform.o
Dstc_SwTrigger                                    ./system/include/S6E2CCA/PDL/dstc.o
Dstc_SwTrqansferStartStatus                       ./system/include/S6E2CCA/PDL/dstc.o
ETHER0_IRQHandler                                 ./system/include/S6E2CCA/startup/startup_s6e2cc.o
EXINT0_IRQHandler                                 ./system/include/S6E2CCA/startup/startup_s6e2cc.o
EXINT10_IRQHandler                                ./system/include/S6E2CCA/startup/startup_s6e2cc.o
EXINT11_IRQHandler                                ./system/include/S6E2CCA/startup/startup_s6e2cc.o
EXINT12_IRQHandler                                ./system/include/S6E2CCA/startup/startup_s6e2cc.o
EXINT13_IRQHandler                                ./system/include/S6E2CCA/startup/startup_s6e2cc.o
EXINT14_IRQHandler                                ./system/include/S6E2CCA/startup/startup_s6e2cc.o
EXINT15_IRQHandler                                ./system/include/S6E2CCA/startup/startup_s6e2cc.o
EXINT16_19_IRQHandler                             ./system/include/S6E2CCA/startup/startup_s6e2cc.o
EXINT1_IRQHandler                                 ./system/include/S6E2CCA/startup/startup_s6e2cc.o
EXINT20_23_IRQHandler                             ./system/include/S6E2CCA/startup/startup_s6e2cc.o
EXINT24_27_IRQHandler                             ./system/include/S6E2CCA/startup/startup_s6e2cc.o
EXINT28_31_IRQHandler                             ./system/include/S6E2CCA/startup/startup_s6e2cc.o
EXINT2_IRQHandler                                 ./system/include/S6E2CCA/startup/startup_s6e2cc.o
EXINT3_IRQHandler                                 ./system/include/S6E2CCA/startup/startup_s6e2cc.o
EXINT4_IRQHandler                                 ./system/include/S6E2CCA/startup/startup_s6e2cc.o
EXINT5_IRQHandler                                 ./system/include/S6E2CCA/startup/startup_s6e2cc.o
EXINT6_IRQHandler                                 ./system/include/S6E2CCA/startup/startup_s6e2cc.o
EXINT7_IRQHandler                                 ./system/include/S6E2CCA/startup/startup_s6e2cc.o
EXINT8_IRQHandler                                 ./system/include/S6E2CCA/startup/startup_s6e2cc.o
EXINT9_IRQHandler                                 ./system/include/S6E2CCA/startup/startup_s6e2cc.o
EXTBUS_ERR_IRQHandler                             ./system/include/S6E2CCA/startup/startup_s6e2cc.o
FLASHIF_IRQHandler                                ./system/include/S6E2CCA/startup/startup_s6e2cc.o
FM4_GUI                                           ./system/include/platform/platform.o
GpioInit                                          ./system/include/platform/platform.o
HSSPI_IRQHandler                                  ./system/include/S6E2CCA/startup/startup_s6e2cc.o
HardFault_Handler                                 ./system/include/S6E2CCA/startup/startup_s6e2cc.o
I2S0Init                                          ./system/include/platform/platform.o
I2sIrqHandler                                     ./system/include/S6E2CCA/PDL/i2s.o
                                                  ./system/include/S6E2CCA/PDL/interrupts_fm4_type_b.o
I2s_CheckPllReady                                 ./system/include/S6E2CCA/PDL/i2s.o
I2s_ClrStatus                                     ./system/include/S6E2CCA/PDL/i2s.o
I2s_DeInit                                        ./system/include/S6E2CCA/PDL/i2s.o
I2s_DeInitClk                                     ./system/include/S6E2CCA/PDL/i2s.o
I2s_DisableIrq                                    ./system/include/S6E2CCA/PDL/i2s.o
I2s_DisablePll                                    ./system/include/S6E2CCA/PDL/i2s.o
                                                  ./system/include/platform/platform.o
I2s_DisableRx                                     ./system/include/S6E2CCA/PDL/i2s.o
I2s_DisableTx                                     ./system/include/S6E2CCA/PDL/i2s.o
I2s_EnableIrq                                     ./system/include/S6E2CCA/PDL/i2s.o
I2s_EnablePll                                     ./system/include/S6E2CCA/PDL/i2s.o
I2s_EnableRx                                      ./system/include/S6E2CCA/PDL/i2s.o
                                                  ./system/include/platform/platform.o
I2s_EnableTx                                      ./system/include/S6E2CCA/PDL/i2s.o
                                                  ./system/include/platform/platform.o
I2s_GetRxFifoNumber                               ./system/include/S6E2CCA/PDL/i2s.o
I2s_GetStatus                                     ./system/include/S6E2CCA/PDL/i2s.o
I2s_GetTxFifoNumber                               ./system/include/S6E2CCA/PDL/i2s.o
I2s_Init                                          ./system/include/S6E2CCA/PDL/i2s.o
                                                  ./system/include/platform/platform.o
I2s_InitClk                                       ./system/include/S6E2CCA/PDL/i2s.o
I2s_ReadRxFifo                                    ./system/include/S6E2CCA/PDL/i2s.o
I2s_Reset                                         ./system/include/S6E2CCA/PDL/i2s.o
I2s_Start                                         ./system/include/S6E2CCA/PDL/i2s.o
                                                  ./system/include/platform/platform.o
I2s_StartClk                                      ./system/include/S6E2CCA/PDL/i2s.o
                                                  ./system/include/platform/platform.o
I2s_Stop                                          ./system/include/S6E2CCA/PDL/i2s.o
I2s_StopClk                                       ./system/include/S6E2CCA/PDL/i2s.o
                                                  ./system/include/platform/platform.o
I2s_WriteTxFifo                                   ./system/include/S6E2CCA/PDL/i2s.o
IRQ003SEL_IRQHandler                              ./system/include/S6E2CCA/startup/startup_s6e2cc.o
IRQ004SEL_IRQHandler                              ./system/include/S6E2CCA/startup/startup_s6e2cc.o
IRQ005SEL_IRQHandler                              ./system/include/S6E2CCA/startup/startup_s6e2cc.o
IRQ006SEL_IRQHandler                              ./system/include/S6E2CCA/startup/startup_s6e2cc.o
IRQ007SEL_IRQHandler                              ./system/include/S6E2CCA/startup/startup_s6e2cc.o
IRQ008SEL_IRQHandler                              ./system/include/S6E2CCA/startup/startup_s6e2cc.o
IRQ009SEL_IRQHandler                              ./system/include/S6E2CCA/startup/startup_s6e2cc.o
IRQ010SEL_IRQHandler                              ./system/include/S6E2CCA/startup/startup_s6e2cc.o
LVD_IRQHandler                                    ./system/include/S6E2CCA/startup/startup_s6e2cc.o
MFS0_RX_IRQHandler                                ./system/include/S6E2CCA/startup/startup_s6e2cc.o
MFS0_TX_IRQHandler                                ./system/include/S6E2CCA/startup/startup_s6e2cc.o
MFS10_RX_IRQHandler                               ./system/include/S6E2CCA/startup/startup_s6e2cc.o
MFS10_TX_IRQHandler                               ./system/include/S6E2CCA/startup/startup_s6e2cc.o
MFS11_RX_IRQHandler                               ./system/include/S6E2CCA/startup/startup_s6e2cc.o
MFS11_TX_IRQHandler                               ./system/include/S6E2CCA/startup/startup_s6e2cc.o
MFS12_RX_IRQHandler                               ./system/include/S6E2CCA/startup/startup_s6e2cc.o
MFS12_TX_IRQHandler                               ./system/include/S6E2CCA/startup/startup_s6e2cc.o
MFS13_RX_IRQHandler                               ./system/include/S6E2CCA/startup/startup_s6e2cc.o
MFS13_TX_IRQHandler                               ./system/include/S6E2CCA/startup/startup_s6e2cc.o
MFS14_RX_IRQHandler                               ./system/include/S6E2CCA/startup/startup_s6e2cc.o
MFS14_TX_IRQHandler                               ./system/include/S6E2CCA/startup/startup_s6e2cc.o
MFS15_RX_IRQHandler                               ./system/include/S6E2CCA/startup/startup_s6e2cc.o
MFS15_TX_IRQHandler                               ./system/include/S6E2CCA/startup/startup_s6e2cc.o
MFS1_RX_IRQHandler                                ./system/include/S6E2CCA/startup/startup_s6e2cc.o
MFS1_TX_IRQHandler                                ./system/include/S6E2CCA/startup/startup_s6e2cc.o
MFS2_RX_IRQHandler                                ./system/include/S6E2CCA/startup/startup_s6e2cc.o
MFS2_TX_IRQHandler                                ./system/include/S6E2CCA/startup/startup_s6e2cc.o
MFS3_RX_IRQHandler                                ./system/include/S6E2CCA/startup/startup_s6e2cc.o
MFS3_TX_IRQHandler                                ./system/include/S6E2CCA/startup/startup_s6e2cc.o
MFS4_RX_IRQHandler                                ./system/include/S6E2CCA/startup/startup_s6e2cc.o
MFS4_TX_IRQHandler                                ./system/include/S6E2CCA/startup/startup_s6e2cc.o
MFS5_RX_IRQHandler                                ./system/include/S6E2CCA/startup/startup_s6e2cc.o
MFS5_TX_IRQHandler                                ./system/include/S6E2CCA/startup/startup_s6e2cc.o
MFS6_RX_IRQHandler                                ./system/include/S6E2CCA/startup/startup_s6e2cc.o
MFS6_TX_IRQHandler                                ./system/include/S6E2CCA/startup/startup_s6e2cc.o
MFS7_RX_IRQHandler                                ./system/include/S6E2CCA/startup/startup_s6e2cc.o
MFS7_TX_IRQHandler                                ./system/include/S6E2CCA/startup/startup_s6e2cc.o
MFS8_RX_IRQHandler                                ./system/include/S6E2CCA/startup/startup_s6e2cc.o
MFS8_TX_IRQHandler                                ./system/include/S6E2CCA/startup/startup_s6e2cc.o
MFS9_RX_IRQHandler                                ./system/include/S6E2CCA/startup/startup_s6e2cc.o
MFS9_TX_IRQHandler                                ./system/include/S6E2CCA/startup/startup_s6e2cc.o
MFT0_FRT_PEAK_IRQHandler                          ./system/include/S6E2CCA/startup/startup_s6e2cc.o
MFT0_FRT_ZERO_IRQHandler                          ./system/include/S6E2CCA/startup/startup_s6e2cc.o
MFT0_ICU_IRQHandler                               ./system/include/S6E2CCA/startup/startup_s6e2cc.o
MFT0_OCU_IRQHandler                               ./system/include/S6E2CCA/startup/startup_s6e2cc.o
MFT0_WFG_DTIF_IRQHandler                          ./system/include/S6E2CCA/startup/startup_s6e2cc.o
MFT1_FRT_PEAK_IRQHandler                          ./system/include/S6E2CCA/startup/startup_s6e2cc.o
MFT1_FRT_ZERO_IRQHandler                          ./system/include/S6E2CCA/startup/startup_s6e2cc.o
MFT1_ICU_IRQHandler                               ./system/include/S6E2CCA/startup/startup_s6e2cc.o
MFT1_OCU_IRQHandler                               ./system/include/S6E2CCA/startup/startup_s6e2cc.o
MFT1_WFG_DTIF_IRQHandler                          ./system/include/S6E2CCA/startup/startup_s6e2cc.o
MFT2_FRT_PEAK_IRQHandler                          ./system/include/S6E2CCA/startup/startup_s6e2cc.o
MFT2_FRT_ZERO_IRQHandler                          ./system/include/S6E2CCA/startup/startup_s6e2cc.o
MFT2_ICU_IRQHandler                               ./system/include/S6E2CCA/startup/startup_s6e2cc.o
MFT2_OCU_IRQHandler                               ./system/include/S6E2CCA/startup/startup_s6e2cc.o
MFT2_WFG_DTIF_IRQHandler                          ./system/include/S6E2CCA/startup/startup_s6e2cc.o
MemManage_Handler                                 ./system/include/S6E2CCA/startup/startup_s6e2cc.o
Mfs_I2c_ClrStatus                                 ./system/include/S6E2CCA/PDL/mfs.o
                                                  ./system/include/S6E2CCA/PDL/wm8731.o
Mfs_I2c_ConfigAck                                 ./system/include/S6E2CCA/PDL/mfs.o
                                                  ./system/include/S6E2CCA/PDL/wm8731.o
Mfs_I2c_DeInit                                    ./system/include/S6E2CCA/PDL/mfs.o
Mfs_I2c_GenerateRestart                           ./system/include/S6E2CCA/PDL/mfs.o
Mfs_I2c_GenerateStart                             ./system/include/S6E2CCA/PDL/mfs.o
                                                  ./system/include/S6E2CCA/PDL/wm8731.o
Mfs_I2c_GenerateStop                              ./system/include/S6E2CCA/PDL/mfs.o
                                                  ./system/include/S6E2CCA/PDL/wm8731.o
Mfs_I2c_GetAck                                    ./system/include/S6E2CCA/PDL/mfs.o
                                                  ./system/include/S6E2CCA/PDL/wm8731.o
Mfs_I2c_GetDataDir                                ./system/include/S6E2CCA/PDL/mfs.o
Mfs_I2c_GetFifoCount                              ./system/include/S6E2CCA/PDL/mfs.o
Mfs_I2c_GetStatus                                 ./system/include/S6E2CCA/PDL/mfs.o
                                                  ./system/include/S6E2CCA/PDL/wm8731.o
Mfs_I2c_Init                                      ./system/include/S6E2CCA/PDL/mfs.o
                                                  ./system/include/S6E2CCA/PDL/wm8731.o
Mfs_I2c_ReceiveData                               ./system/include/S6E2CCA/PDL/mfs.o
Mfs_I2c_ResetFifo                                 ./system/include/S6E2CCA/PDL/mfs.o
Mfs_I2c_SendData                                  ./system/include/S6E2CCA/PDL/mfs.o
                                                  ./system/include/S6E2CCA/PDL/wm8731.o
Mfs_I2c_SetBaudRate                               ./system/include/S6E2CCA/PDL/mfs.o
Mfs_I2c_SetFifoCount                              ./system/include/S6E2CCA/PDL/mfs.o
Mfs_Uart_ClrStatus                                ./system/include/S6E2CCA/PDL/mfs.o
Mfs_Uart_DeInit                                   ./system/include/S6E2CCA/PDL/mfs.o
Mfs_Uart_DisableFunc                              ./system/include/S6E2CCA/PDL/mfs.o
Mfs_Uart_EnableFunc                               ./system/include/S6E2CCA/PDL/mfs.o
                                                  ./system/include/platform/platform.o
Mfs_Uart_GetFifoCount                             ./system/include/S6E2CCA/PDL/mfs.o
Mfs_Uart_GetStatus                                ./system/include/S6E2CCA/PDL/mfs.o
                                                  ./system/include/platform/utils.o
                                                  ./system/include/platform/FM4_slider_interface.o
Mfs_Uart_Init                                     ./system/include/S6E2CCA/PDL/mfs.o
                                                  ./system/include/platform/platform.o
Mfs_Uart_ReceiveData                              ./system/include/S6E2CCA/PDL/mfs.o
                                                  ./system/include/platform/FM4_slider_interface.o
Mfs_Uart_ResetFifo                                ./system/include/S6E2CCA/PDL/mfs.o
Mfs_Uart_SendData                                 ./system/include/S6E2CCA/PDL/mfs.o
                                                  ./system/include/platform/utils.o
                                                  ./system/include/platform/FM4_slider_interface.o
Mfs_Uart_SetBaudRate                              ./system/include/S6E2CCA/PDL/mfs.o
Mfs_Uart_SetFifoCount                             ./system/include/S6E2CCA/PDL/mfs.o
NMI_Handler                                       ./system/include/S6E2CCA/startup/startup_s6e2cc.o
PCRC_I2S0_1_IRQHandler                            ./system/include/S6E2CCA/PDL/interrupts_fm4_type_b.o
                                                  ./system/include/S6E2CCA/startup/startup_s6e2cc.o
PDL_DummyHandler                                  ./system/include/S6E2CCA/PDL/interrupts_fm4_type_b.o
PDL_WAIT_LOOP_HOOK                                ./system/include/S6E2CCA/PDL/pdl.o
PPG00_02_04_IRQHandler                            ./system/include/S6E2CCA/startup/startup_s6e2cc.o
PPG08_10_12_IRQHandler                            ./system/include/S6E2CCA/startup/startup_s6e2cc.o
PPG16_18_20_IRQHandler                            ./system/include/S6E2CCA/startup/startup_s6e2cc.o
PendSV_Handler                                    ./system/include/S6E2CCA/startup/startup_s6e2cc.o
QPRC0_IRQHandler                                  ./system/include/S6E2CCA/startup/startup_s6e2cc.o
QPRC1_IRQHandler                                  ./system/include/S6E2CCA/startup/startup_s6e2cc.o
QPRC2_IRQHandler                                  ./system/include/S6E2CCA/startup/startup_s6e2cc.o
QPRC3_IRQHandler                                  ./system/include/S6E2CCA/startup/startup_s6e2cc.o
RTC_IRQHandler                                    ./system/include/S6E2CCA/startup/startup_s6e2cc.o
SD_IRQHandler                                     ./system/include/S6E2CCA/startup/startup_s6e2cc.o
SVC_Handler                                       ./system/include/S6E2CCA/startup/startup_s6e2cc.o
SWDT_IRQHandler                                   ./system/include/S6E2CCA/startup/startup_s6e2cc.o
SysTick_Handler                                   ./system/include/S6E2CCA/startup/startup_s6e2cc.o
SystemCoreClock                                   ./system/include/S6E2CCA/PDL/system_s6e2cc.o
                                                  ./system/include/S6E2CCA/PDL/mfs.o
                                                  ./system/include/S6E2CCA/PDL/i2s.o
SystemCoreClockUpdate                             ./system/include/S6E2CCA/PDL/system_s6e2cc.o
                                                  ./system/include/S6E2CCA/PDL/mfs.o
SystemInit                                        ./system/include/S6E2CCA/PDL/system_s6e2cc.o
                                                  ./system/include/S6E2CCA/startup/startup_s6e2cc.o
TIM_IRQHandler                                    ./system/include/S6E2CCA/startup/startup_s6e2cc.o
USB0_F_IRQHandler                                 ./system/include/S6E2CCA/startup/startup_s6e2cc.o
USB0_H_F_IRQHandler                               ./system/include/S6E2CCA/startup/startup_s6e2cc.o
USB1_F_IRQHandler                                 ./system/include/S6E2CCA/startup/startup_s6e2cc.o
USB1_H_F_IRQHandler                               ./system/include/S6E2CCA/startup/startup_s6e2cc.o
Uart0Init                                         ./system/include/platform/platform.o
UsageFault_Handler                                ./system/include/S6E2CCA/startup/startup_s6e2cc.o
WC_IRQHandler                                     ./system/include/S6E2CCA/startup/startup_s6e2cc.o
Wm8731_Init                                       ./system/include/S6E2CCA/PDL/wm8731.o
                                                  ./system/include/platform/platform.o
Wm8731_SendCmd                                    ./system/include/S6E2CCA/PDL/wm8731.o
                                                  ./system/include/platform/FM4_slider_interface.o
Wm8731_SetHpVolume                                ./system/include/S6E2CCA/PDL/wm8731.o
_Balloc                                           c:/users/erth0001/user/gnuarmeclipse_photon/eclipse/gnu mcu eclipse/arm embedded gcc/bin/../lib/gcc/arm-none-eabi/7.3.1/../../../../arm-none-eabi/lib/thumb/v7e-m/fpv4-sp/hard\libg_nano.a(lib_a-mprec.o)
                                                  c:/users/erth0001/user/gnuarmeclipse_photon/eclipse/gnu mcu eclipse/arm embedded gcc/bin/../lib/gcc/arm-none-eabi/7.3.1/../../../../arm-none-eabi/lib/thumb/v7e-m/fpv4-sp/hard\libg_nano.a(lib_a-gdtoa-gethex.o)
                                                  c:/users/erth0001/user/gnuarmeclipse_photon/eclipse/gnu mcu eclipse/arm embedded gcc/bin/../lib/gcc/arm-none-eabi/7.3.1/../../../../arm-none-eabi/lib/thumb/v7e-m/fpv4-sp/hard\libg_nano.a(lib_a-dtoa.o)
                                                  c:/users/erth0001/user/gnuarmeclipse_photon/eclipse/gnu mcu eclipse/arm embedded gcc/bin/../lib/gcc/arm-none-eabi/7.3.1/../../../../arm-none-eabi/lib/thumb/v7e-m/fpv4-sp/hard\libg_nano.a(lib_a-strtod.o)
_Bfree                                            c:/users/erth0001/user/gnuarmeclipse_photon/eclipse/gnu mcu eclipse/arm embedded gcc/bin/../lib/gcc/arm-none-eabi/7.3.1/../../../../arm-none-eabi/lib/thumb/v7e-m/fpv4-sp/hard\libg_nano.a(lib_a-mprec.o)
                                                  c:/users/erth0001/user/gnuarmeclipse_photon/eclipse/gnu mcu eclipse/arm embedded gcc/bin/../lib/gcc/arm-none-eabi/7.3.1/../../../../arm-none-eabi/lib/thumb/v7e-m/fpv4-sp/hard\libg_nano.a(lib_a-gdtoa-gethex.o)
                                                  c:/users/erth0001/user/gnuarmeclipse_photon/eclipse/gnu mcu eclipse/arm embedded gcc/bin/../lib/gcc/arm-none-eabi/7.3.1/../../../../arm-none-eabi/lib/thumb/v7e-m/fpv4-sp/hard\libg_nano.a(lib_a-dtoa.o)
                                                  c:/users/erth0001/user/gnuarmeclipse_photon/eclipse/gnu mcu eclipse/arm embedded gcc/bin/../lib/gcc/arm-none-eabi/7.3.1/../../../../arm-none-eabi/lib/thumb/v7e-m/fpv4-sp/hard\libg_nano.a(lib_a-strtod.o)
_PathLocale                                       c:/users/erth0001/user/gnuarmeclipse_photon/eclipse/gnu mcu eclipse/arm embedded gcc/bin/../lib/gcc/arm-none-eabi/7.3.1/../../../../arm-none-eabi/lib/thumb/v7e-m/fpv4-sp/hard\libg_nano.a(lib_a-locale.o)
__FM_heap_end                                     ./system/include/S6E2CCA/startup/startup_s6e2cc.o
__FM_heap_start                                   ./system/include/S6E2CCA/startup/startup_s6e2cc.o
__FM_interrupt_vector_cortex_m                    ./system/include/S6E2CCA/startup/startup_s6e2cc.o
__FM_reset                                        ./system/include/S6E2CCA/startup/startup_s6e2cc.o
__FM_reset_cortex_m                               ./system/include/S6E2CCA/startup/startup_s6e2cc.o
__FM_stack                                        ./system/include/S6E2CCA/startup/startup_s6e2cc.o
__FM_stack_mem                                    ./system/include/S6E2CCA/startup/startup_s6e2cc.o
__FM_stack_size                                   ./system/include/S6E2CCA/startup/startup_s6e2cc.o
__adddf3                                          c:/users/erth0001/user/gnuarmeclipse_photon/eclipse/gnu mcu eclipse/arm embedded gcc/bin/../lib/gcc/arm-none-eabi/7.3.1/thumb/v7e-m/fpv4-sp/hard\libgcc.a(_arm_addsubdf3.o)
__aeabi_cdcmpeq                                   c:/users/erth0001/user/gnuarmeclipse_photon/eclipse/gnu mcu eclipse/arm embedded gcc/bin/../lib/gcc/arm-none-eabi/7.3.1/thumb/v7e-m/fpv4-sp/hard\libgcc.a(_arm_cmpdf2.o)
__aeabi_cdcmple                                   c:/users/erth0001/user/gnuarmeclipse_photon/eclipse/gnu mcu eclipse/arm embedded gcc/bin/../lib/gcc/arm-none-eabi/7.3.1/thumb/v7e-m/fpv4-sp/hard\libgcc.a(_arm_cmpdf2.o)
__aeabi_cdrcmple                                  c:/users/erth0001/user/gnuarmeclipse_photon/eclipse/gnu mcu eclipse/arm embedded gcc/bin/../lib/gcc/arm-none-eabi/7.3.1/thumb/v7e-m/fpv4-sp/hard\libgcc.a(_arm_cmpdf2.o)
__aeabi_d2f                                       c:/users/erth0001/user/gnuarmeclipse_photon/eclipse/gnu mcu eclipse/arm embedded gcc/bin/../lib/gcc/arm-none-eabi/7.3.1/thumb/v7e-m/fpv4-sp/hard\libgcc.a(_arm_truncdfsf2.o)
                                                  c:/users/erth0001/user/gnuarmeclipse_photon/eclipse/gnu mcu eclipse/arm embedded gcc/bin/../lib/gcc/arm-none-eabi/7.3.1/../../../../arm-none-eabi/lib/thumb/v7e-m/fpv4-sp/hard\libg_nano.a(lib_a-strtod.o)
                                                  c:/users/erth0001/user/gnuarmeclipse_photon/eclipse/gnu mcu eclipse/arm embedded gcc/bin/../lib/gcc/arm-none-eabi/7.3.1/../../../../arm-none-eabi/lib/thumb/v7e-m/fpv4-sp/hard\libg_nano.a(lib_a-nano-vfscanf_float.o)
                                                  ./system/include/platform/FM4_slider_interface.o
__aeabi_d2iz                                      c:/users/erth0001/user/gnuarmeclipse_photon/eclipse/gnu mcu eclipse/arm embedded gcc/bin/../lib/gcc/arm-none-eabi/7.3.1/thumb/v7e-m/fpv4-sp/hard\libgcc.a(_arm_fixdfsi.o)
                                                  c:/users/erth0001/user/gnuarmeclipse_photon/eclipse/gnu mcu eclipse/arm embedded gcc/bin/../lib/gcc/arm-none-eabi/7.3.1/../../../../arm-none-eabi/lib/thumb/v7e-m/fpv4-sp/hard\libg_nano.a(lib_a-dtoa.o)
                                                  c:/users/erth0001/user/gnuarmeclipse_photon/eclipse/gnu mcu eclipse/arm embedded gcc/bin/../lib/gcc/arm-none-eabi/7.3.1/../../../../arm-none-eabi/lib/thumb/v7e-m/fpv4-sp/hard\libg_nano.a(lib_a-strtod.o)
__aeabi_d2uiz                                     c:/users/erth0001/user/gnuarmeclipse_photon/eclipse/gnu mcu eclipse/arm embedded gcc/bin/../lib/gcc/arm-none-eabi/7.3.1/thumb/v7e-m/fpv4-sp/hard\libgcc.a(_arm_fixunsdfsi.o)
                                                  c:/users/erth0001/user/gnuarmeclipse_photon/eclipse/gnu mcu eclipse/arm embedded gcc/bin/../lib/gcc/arm-none-eabi/7.3.1/../../../../arm-none-eabi/lib/thumb/v7e-m/fpv4-sp/hard\libg_nano.a(lib_a-strtod.o)
__aeabi_dadd                                      c:/users/erth0001/user/gnuarmeclipse_photon/eclipse/gnu mcu eclipse/arm embedded gcc/bin/../lib/gcc/arm-none-eabi/7.3.1/thumb/v7e-m/fpv4-sp/hard\libgcc.a(_arm_addsubdf3.o)
                                                  c:/users/erth0001/user/gnuarmeclipse_photon/eclipse/gnu mcu eclipse/arm embedded gcc/bin/../lib/gcc/arm-none-eabi/7.3.1/../../../../arm-none-eabi/lib/thumb/v7e-m/fpv4-sp/hard\libg_nano.a(lib_a-dtoa.o)
                                                  c:/users/erth0001/user/gnuarmeclipse_photon/eclipse/gnu mcu eclipse/arm embedded gcc/bin/../lib/gcc/arm-none-eabi/7.3.1/../../../../arm-none-eabi/lib/thumb/v7e-m/fpv4-sp/hard\libg_nano.a(lib_a-strtod.o)
__aeabi_dcmpeq                                    c:/users/erth0001/user/gnuarmeclipse_photon/eclipse/gnu mcu eclipse/arm embedded gcc/bin/../lib/gcc/arm-none-eabi/7.3.1/thumb/v7e-m/fpv4-sp/hard\libgcc.a(_arm_cmpdf2.o)
                                                  c:/users/erth0001/user/gnuarmeclipse_photon/eclipse/gnu mcu eclipse/arm embedded gcc/bin/../lib/gcc/arm-none-eabi/7.3.1/../../../../arm-none-eabi/lib/thumb/v7e-m/fpv4-sp/hard\libg_nano.a(lib_a-dtoa.o)
                                                  c:/users/erth0001/user/gnuarmeclipse_photon/eclipse/gnu mcu eclipse/arm embedded gcc/bin/../lib/gcc/arm-none-eabi/7.3.1/../../../../arm-none-eabi/lib/thumb/v7e-m/fpv4-sp/hard\libg_nano.a(lib_a-strtod.o)
                                                  c:/users/erth0001/user/gnuarmeclipse_photon/eclipse/gnu mcu eclipse/arm embedded gcc/bin/../lib/gcc/arm-none-eabi/7.3.1/../../../../arm-none-eabi/lib/thumb/v7e-m/fpv4-sp/hard\libg_nano.a(lib_a-nano-vfprintf_float.o)
__aeabi_dcmpge                                    c:/users/erth0001/user/gnuarmeclipse_photon/eclipse/gnu mcu eclipse/arm embedded gcc/bin/../lib/gcc/arm-none-eabi/7.3.1/thumb/v7e-m/fpv4-sp/hard\libgcc.a(_arm_cmpdf2.o)
                                                  c:/users/erth0001/user/gnuarmeclipse_photon/eclipse/gnu mcu eclipse/arm embedded gcc/bin/../lib/gcc/arm-none-eabi/7.3.1/../../../../arm-none-eabi/lib/thumb/v7e-m/fpv4-sp/hard\libg_nano.a(lib_a-dtoa.o)
__aeabi_dcmpgt                                    c:/users/erth0001/user/gnuarmeclipse_photon/eclipse/gnu mcu eclipse/arm embedded gcc/bin/../lib/gcc/arm-none-eabi/7.3.1/thumb/v7e-m/fpv4-sp/hard\libgcc.a(_arm_cmpdf2.o)
                                                  c:/users/erth0001/user/gnuarmeclipse_photon/eclipse/gnu mcu eclipse/arm embedded gcc/bin/../lib/gcc/arm-none-eabi/7.3.1/../../../../arm-none-eabi/lib/thumb/v7e-m/fpv4-sp/hard\libg_nano.a(lib_a-dtoa.o)
                                                  c:/users/erth0001/user/gnuarmeclipse_photon/eclipse/gnu mcu eclipse/arm embedded gcc/bin/../lib/gcc/arm-none-eabi/7.3.1/../../../../arm-none-eabi/lib/thumb/v7e-m/fpv4-sp/hard\libg_nano.a(lib_a-strtod.o)
__aeabi_dcmple                                    c:/users/erth0001/user/gnuarmeclipse_photon/eclipse/gnu mcu eclipse/arm embedded gcc/bin/../lib/gcc/arm-none-eabi/7.3.1/thumb/v7e-m/fpv4-sp/hard\libgcc.a(_arm_cmpdf2.o)
                                                  c:/users/erth0001/user/gnuarmeclipse_photon/eclipse/gnu mcu eclipse/arm embedded gcc/bin/../lib/gcc/arm-none-eabi/7.3.1/../../../../arm-none-eabi/lib/thumb/v7e-m/fpv4-sp/hard\libg_nano.a(lib_a-strtod.o)
                                                  c:/users/erth0001/user/gnuarmeclipse_photon/eclipse/gnu mcu eclipse/arm embedded gcc/bin/../lib/gcc/arm-none-eabi/7.3.1/../../../../arm-none-eabi/lib/thumb/v7e-m/fpv4-sp/hard\libg_nano.a(lib_a-nano-vfprintf_float.o)
__aeabi_dcmplt                                    c:/users/erth0001/user/gnuarmeclipse_photon/eclipse/gnu mcu eclipse/arm embedded gcc/bin/../lib/gcc/arm-none-eabi/7.3.1/thumb/v7e-m/fpv4-sp/hard\libgcc.a(_arm_cmpdf2.o)
                                                  c:/users/erth0001/user/gnuarmeclipse_photon/eclipse/gnu mcu eclipse/arm embedded gcc/bin/../lib/gcc/arm-none-eabi/7.3.1/../../../../arm-none-eabi/lib/thumb/v7e-m/fpv4-sp/hard\libg_nano.a(lib_a-dtoa.o)
                                                  c:/users/erth0001/user/gnuarmeclipse_photon/eclipse/gnu mcu eclipse/arm embedded gcc/bin/../lib/gcc/arm-none-eabi/7.3.1/../../../../arm-none-eabi/lib/thumb/v7e-m/fpv4-sp/hard\libg_nano.a(lib_a-strtod.o)
                                                  c:/users/erth0001/user/gnuarmeclipse_photon/eclipse/gnu mcu eclipse/arm embedded gcc/bin/../lib/gcc/arm-none-eabi/7.3.1/../../../../arm-none-eabi/lib/thumb/v7e-m/fpv4-sp/hard\libg_nano.a(lib_a-nano-vfprintf_float.o)
__aeabi_dcmpun                                    c:/users/erth0001/user/gnuarmeclipse_photon/eclipse/gnu mcu eclipse/arm embedded gcc/bin/../lib/gcc/arm-none-eabi/7.3.1/thumb/v7e-m/fpv4-sp/hard\libgcc.a(_arm_unorddf2.o)
                                                  c:/users/erth0001/user/gnuarmeclipse_photon/eclipse/gnu mcu eclipse/arm embedded gcc/bin/../lib/gcc/arm-none-eabi/7.3.1/../../../../arm-none-eabi/lib/thumb/v7e-m/fpv4-sp/hard\libg_nano.a(lib_a-strtod.o)
                                                  c:/users/erth0001/user/gnuarmeclipse_photon/eclipse/gnu mcu eclipse/arm embedded gcc/bin/../lib/gcc/arm-none-eabi/7.3.1/../../../../arm-none-eabi/lib/thumb/v7e-m/fpv4-sp/hard\libg_nano.a(lib_a-nano-vfscanf_float.o)
                                                  c:/users/erth0001/user/gnuarmeclipse_photon/eclipse/gnu mcu eclipse/arm embedded gcc/bin/../lib/gcc/arm-none-eabi/7.3.1/../../../../arm-none-eabi/lib/thumb/v7e-m/fpv4-sp/hard\libg_nano.a(lib_a-nano-vfprintf_float.o)
__aeabi_ddiv                                      c:/users/erth0001/user/gnuarmeclipse_photon/eclipse/gnu mcu eclipse/arm embedded gcc/bin/../lib/gcc/arm-none-eabi/7.3.1/thumb/v7e-m/fpv4-sp/hard\libgcc.a(_arm_muldivdf3.o)
                                                  c:/users/erth0001/user/gnuarmeclipse_photon/eclipse/gnu mcu eclipse/arm embedded gcc/bin/../lib/gcc/arm-none-eabi/7.3.1/../../../../arm-none-eabi/lib/thumb/v7e-m/fpv4-sp/hard\libg_nano.a(lib_a-mprec.o)
                                                  c:/users/erth0001/user/gnuarmeclipse_photon/eclipse/gnu mcu eclipse/arm embedded gcc/bin/../lib/gcc/arm-none-eabi/7.3.1/../../../../arm-none-eabi/lib/thumb/v7e-m/fpv4-sp/hard\libg_nano.a(lib_a-dtoa.o)
                                                  c:/users/erth0001/user/gnuarmeclipse_photon/eclipse/gnu mcu eclipse/arm embedded gcc/bin/../lib/gcc/arm-none-eabi/7.3.1/../../../../arm-none-eabi/lib/thumb/v7e-m/fpv4-sp/hard\libg_nano.a(lib_a-strtod.o)
__aeabi_dmul                                      c:/users/erth0001/user/gnuarmeclipse_photon/eclipse/gnu mcu eclipse/arm embedded gcc/bin/../lib/gcc/arm-none-eabi/7.3.1/thumb/v7e-m/fpv4-sp/hard\libgcc.a(_arm_muldivdf3.o)
                                                  c:/users/erth0001/user/gnuarmeclipse_photon/eclipse/gnu mcu eclipse/arm embedded gcc/bin/../lib/gcc/arm-none-eabi/7.3.1/../../../../arm-none-eabi/lib/thumb/v7e-m/fpv4-sp/hard\libg_nano.a(lib_a-mprec.o)
                                                  c:/users/erth0001/user/gnuarmeclipse_photon/eclipse/gnu mcu eclipse/arm embedded gcc/bin/../lib/gcc/arm-none-eabi/7.3.1/../../../../arm-none-eabi/lib/thumb/v7e-m/fpv4-sp/hard\libg_nano.a(lib_a-dtoa.o)
                                                  c:/users/erth0001/user/gnuarmeclipse_photon/eclipse/gnu mcu eclipse/arm embedded gcc/bin/../lib/gcc/arm-none-eabi/7.3.1/../../../../arm-none-eabi/lib/thumb/v7e-m/fpv4-sp/hard\libg_nano.a(lib_a-strtod.o)
__aeabi_drsub                                     c:/users/erth0001/user/gnuarmeclipse_photon/eclipse/gnu mcu eclipse/arm embedded gcc/bin/../lib/gcc/arm-none-eabi/7.3.1/thumb/v7e-m/fpv4-sp/hard\libgcc.a(_arm_addsubdf3.o)
__aeabi_dsub                                      c:/users/erth0001/user/gnuarmeclipse_photon/eclipse/gnu mcu eclipse/arm embedded gcc/bin/../lib/gcc/arm-none-eabi/7.3.1/thumb/v7e-m/fpv4-sp/hard\libgcc.a(_arm_addsubdf3.o)
                                                  c:/users/erth0001/user/gnuarmeclipse_photon/eclipse/gnu mcu eclipse/arm embedded gcc/bin/../lib/gcc/arm-none-eabi/7.3.1/../../../../arm-none-eabi/lib/thumb/v7e-m/fpv4-sp/hard\libg_nano.a(lib_a-dtoa.o)
                                                  c:/users/erth0001/user/gnuarmeclipse_photon/eclipse/gnu mcu eclipse/arm embedded gcc/bin/../lib/gcc/arm-none-eabi/7.3.1/../../../../arm-none-eabi/lib/thumb/v7e-m/fpv4-sp/hard\libg_nano.a(lib_a-strtod.o)
__aeabi_f2d                                       c:/users/erth0001/user/gnuarmeclipse_photon/eclipse/gnu mcu eclipse/arm embedded gcc/bin/../lib/gcc/arm-none-eabi/7.3.1/thumb/v7e-m/fpv4-sp/hard\libgcc.a(_arm_addsubdf3.o)
__aeabi_i2d                                       c:/users/erth0001/user/gnuarmeclipse_photon/eclipse/gnu mcu eclipse/arm embedded gcc/bin/../lib/gcc/arm-none-eabi/7.3.1/thumb/v7e-m/fpv4-sp/hard\libgcc.a(_arm_addsubdf3.o)
                                                  c:/users/erth0001/user/gnuarmeclipse_photon/eclipse/gnu mcu eclipse/arm embedded gcc/bin/../lib/gcc/arm-none-eabi/7.3.1/../../../../arm-none-eabi/lib/thumb/v7e-m/fpv4-sp/hard\libg_nano.a(lib_a-dtoa.o)
                                                  c:/users/erth0001/user/gnuarmeclipse_photon/eclipse/gnu mcu eclipse/arm embedded gcc/bin/../lib/gcc/arm-none-eabi/7.3.1/../../../../arm-none-eabi/lib/thumb/v7e-m/fpv4-sp/hard\libg_nano.a(lib_a-strtod.o)
__aeabi_l2d                                       c:/users/erth0001/user/gnuarmeclipse_photon/eclipse/gnu mcu eclipse/arm embedded gcc/bin/../lib/gcc/arm-none-eabi/7.3.1/thumb/v7e-m/fpv4-sp/hard\libgcc.a(_arm_addsubdf3.o)
__aeabi_ui2d                                      c:/users/erth0001/user/gnuarmeclipse_photon/eclipse/gnu mcu eclipse/arm embedded gcc/bin/../lib/gcc/arm-none-eabi/7.3.1/thumb/v7e-m/fpv4-sp/hard\libgcc.a(_arm_addsubdf3.o)
                                                  c:/users/erth0001/user/gnuarmeclipse_photon/eclipse/gnu mcu eclipse/arm embedded gcc/bin/../lib/gcc/arm-none-eabi/7.3.1/../../../../arm-none-eabi/lib/thumb/v7e-m/fpv4-sp/hard\libg_nano.a(lib_a-dtoa.o)
                                                  c:/users/erth0001/user/gnuarmeclipse_photon/eclipse/gnu mcu eclipse/arm embedded gcc/bin/../lib/gcc/arm-none-eabi/7.3.1/../../../../arm-none-eabi/lib/thumb/v7e-m/fpv4-sp/hard\libg_nano.a(lib_a-strtod.o)
__aeabi_ul2d                                      c:/users/erth0001/user/gnuarmeclipse_photon/eclipse/gnu mcu eclipse/arm embedded gcc/bin/../lib/gcc/arm-none-eabi/7.3.1/thumb/v7e-m/fpv4-sp/hard\libgcc.a(_arm_addsubdf3.o)
__any_on                                          c:/users/erth0001/user/gnuarmeclipse_photon/eclipse/gnu mcu eclipse/arm embedded gcc/bin/../lib/gcc/arm-none-eabi/7.3.1/../../../../arm-none-eabi/lib/thumb/v7e-m/fpv4-sp/hard\libg_nano.a(lib_a-mprec.o)
                                                  c:/users/erth0001/user/gnuarmeclipse_photon/eclipse/gnu mcu eclipse/arm embedded gcc/bin/../lib/gcc/arm-none-eabi/7.3.1/../../../../arm-none-eabi/lib/thumb/v7e-m/fpv4-sp/hard\libg_nano.a(lib_a-gdtoa-gethex.o)
__ascii_mbtowc                                    c:/users/erth0001/user/gnuarmeclipse_photon/eclipse/gnu mcu eclipse/arm embedded gcc/bin/../lib/gcc/arm-none-eabi/7.3.1/../../../../arm-none-eabi/lib/thumb/v7e-m/fpv4-sp/hard\libg_nano.a(lib_a-mbtowc_r.o)
                                                  c:/users/erth0001/user/gnuarmeclipse_photon/eclipse/gnu mcu eclipse/arm embedded gcc/bin/../lib/gcc/arm-none-eabi/7.3.1/../../../../arm-none-eabi/lib/thumb/v7e-m/fpv4-sp/hard\libg_nano.a(lib_a-locale.o)
__ascii_wctomb                                    c:/users/erth0001/user/gnuarmeclipse_photon/eclipse/gnu mcu eclipse/arm embedded gcc/bin/../lib/gcc/arm-none-eabi/7.3.1/../../../../arm-none-eabi/lib/thumb/v7e-m/fpv4-sp/hard\libg_nano.a(lib_a-wctomb_r.o)
                                                  c:/users/erth0001/user/gnuarmeclipse_photon/eclipse/gnu mcu eclipse/arm embedded gcc/bin/../lib/gcc/arm-none-eabi/7.3.1/../../../../arm-none-eabi/lib/thumb/v7e-m/fpv4-sp/hard\libg_nano.a(lib_a-locale.o)
__b2d                                             c:/users/erth0001/user/gnuarmeclipse_photon/eclipse/gnu mcu eclipse/arm embedded gcc/bin/../lib/gcc/arm-none-eabi/7.3.1/../../../../arm-none-eabi/lib/thumb/v7e-m/fpv4-sp/hard\libg_nano.a(lib_a-mprec.o)
__cmpdf2                                          c:/users/erth0001/user/gnuarmeclipse_photon/eclipse/gnu mcu eclipse/arm embedded gcc/bin/../lib/gcc/arm-none-eabi/7.3.1/thumb/v7e-m/fpv4-sp/hard\libgcc.a(_arm_cmpdf2.o)
__copybits                                        c:/users/erth0001/user/gnuarmeclipse_photon/eclipse/gnu mcu eclipse/arm embedded gcc/bin/../lib/gcc/arm-none-eabi/7.3.1/../../../../arm-none-eabi/lib/thumb/v7e-m/fpv4-sp/hard\libg_nano.a(lib_a-mprec.o)
                                                  c:/users/erth0001/user/gnuarmeclipse_photon/eclipse/gnu mcu eclipse/arm embedded gcc/bin/../lib/gcc/arm-none-eabi/7.3.1/../../../../arm-none-eabi/lib/thumb/v7e-m/fpv4-sp/hard\libg_nano.a(lib_a-strtod.o)
__cvt                                             c:/users/erth0001/user/gnuarmeclipse_photon/eclipse/gnu mcu eclipse/arm embedded gcc/bin/../lib/gcc/arm-none-eabi/7.3.1/../../../../arm-none-eabi/lib/thumb/v7e-m/fpv4-sp/hard\libg_nano.a(lib_a-nano-vfprintf_float.o)
__d2b                                             c:/users/erth0001/user/gnuarmeclipse_photon/eclipse/gnu mcu eclipse/arm embedded gcc/bin/../lib/gcc/arm-none-eabi/7.3.1/../../../../arm-none-eabi/lib/thumb/v7e-m/fpv4-sp/hard\libg_nano.a(lib_a-mprec.o)
                                                  c:/users/erth0001/user/gnuarmeclipse_photon/eclipse/gnu mcu eclipse/arm embedded gcc/bin/../lib/gcc/arm-none-eabi/7.3.1/../../../../arm-none-eabi/lib/thumb/v7e-m/fpv4-sp/hard\libg_nano.a(lib_a-dtoa.o)
                                                  c:/users/erth0001/user/gnuarmeclipse_photon/eclipse/gnu mcu eclipse/arm embedded gcc/bin/../lib/gcc/arm-none-eabi/7.3.1/../../../../arm-none-eabi/lib/thumb/v7e-m/fpv4-sp/hard\libg_nano.a(lib_a-strtod.o)
__divdf3                                          c:/users/erth0001/user/gnuarmeclipse_photon/eclipse/gnu mcu eclipse/arm embedded gcc/bin/../lib/gcc/arm-none-eabi/7.3.1/thumb/v7e-m/fpv4-sp/hard\libgcc.a(_arm_muldivdf3.o)
__eqdf2                                           c:/users/erth0001/user/gnuarmeclipse_photon/eclipse/gnu mcu eclipse/arm embedded gcc/bin/../lib/gcc/arm-none-eabi/7.3.1/thumb/v7e-m/fpv4-sp/hard\libgcc.a(_arm_cmpdf2.o)
__errno                                           c:/users/erth0001/user/gnuarmeclipse_photon/eclipse/gnu mcu eclipse/arm embedded gcc/bin/../lib/gcc/arm-none-eabi/7.3.1/../../../../arm-none-eabi/lib/thumb/v7e-m/fpv4-sp/hard\libc_nano.a(lib_a-errno.o)
                                                  c:/users/erth0001/user/gnuarmeclipse_photon/eclipse/gnu mcu eclipse/arm embedded gcc/bin/../lib/gcc/arm-none-eabi/7.3.1/../../../../arm-none-eabi/lib/thumb/v7e-m/fpv4-sp/hard\librdimon_nano.a(rdimon-syscalls.o)
__exponent                                        c:/users/erth0001/user/gnuarmeclipse_photon/eclipse/gnu mcu eclipse/arm embedded gcc/bin/../lib/gcc/arm-none-eabi/7.3.1/../../../../arm-none-eabi/lib/thumb/v7e-m/fpv4-sp/hard\libg_nano.a(lib_a-nano-vfprintf_float.o)
__extendsfdf2                                     c:/users/erth0001/user/gnuarmeclipse_photon/eclipse/gnu mcu eclipse/arm embedded gcc/bin/../lib/gcc/arm-none-eabi/7.3.1/thumb/v7e-m/fpv4-sp/hard\libgcc.a(_arm_addsubdf3.o)
__fixdfsi                                         c:/users/erth0001/user/gnuarmeclipse_photon/eclipse/gnu mcu eclipse/arm embedded gcc/bin/../lib/gcc/arm-none-eabi/7.3.1/thumb/v7e-m/fpv4-sp/hard\libgcc.a(_arm_fixdfsi.o)
__fixunsdfsi                                      c:/users/erth0001/user/gnuarmeclipse_photon/eclipse/gnu mcu eclipse/arm embedded gcc/bin/../lib/gcc/arm-none-eabi/7.3.1/thumb/v7e-m/fpv4-sp/hard\libgcc.a(_arm_fixunsdfsi.o)
__floatdidf                                       c:/users/erth0001/user/gnuarmeclipse_photon/eclipse/gnu mcu eclipse/arm embedded gcc/bin/../lib/gcc/arm-none-eabi/7.3.1/thumb/v7e-m/fpv4-sp/hard\libgcc.a(_arm_addsubdf3.o)
__floatsidf                                       c:/users/erth0001/user/gnuarmeclipse_photon/eclipse/gnu mcu eclipse/arm embedded gcc/bin/../lib/gcc/arm-none-eabi/7.3.1/thumb/v7e-m/fpv4-sp/hard\libgcc.a(_arm_addsubdf3.o)
__floatundidf                                     c:/users/erth0001/user/gnuarmeclipse_photon/eclipse/gnu mcu eclipse/arm embedded gcc/bin/../lib/gcc/arm-none-eabi/7.3.1/thumb/v7e-m/fpv4-sp/hard\libgcc.a(_arm_addsubdf3.o)
__floatunsidf                                     c:/users/erth0001/user/gnuarmeclipse_photon/eclipse/gnu mcu eclipse/arm embedded gcc/bin/../lib/gcc/arm-none-eabi/7.3.1/thumb/v7e-m/fpv4-sp/hard\libgcc.a(_arm_addsubdf3.o)
__fp_lock_all                                     c:/users/erth0001/user/gnuarmeclipse_photon/eclipse/gnu mcu eclipse/arm embedded gcc/bin/../lib/gcc/arm-none-eabi/7.3.1/../../../../arm-none-eabi/lib/thumb/v7e-m/fpv4-sp/hard\libg_nano.a(lib_a-findfp.o)
__fp_unlock_all                                   c:/users/erth0001/user/gnuarmeclipse_photon/eclipse/gnu mcu eclipse/arm embedded gcc/bin/../lib/gcc/arm-none-eabi/7.3.1/../../../../arm-none-eabi/lib/thumb/v7e-m/fpv4-sp/hard\libg_nano.a(lib_a-findfp.o)
__gedf2                                           c:/users/erth0001/user/gnuarmeclipse_photon/eclipse/gnu mcu eclipse/arm embedded gcc/bin/../lib/gcc/arm-none-eabi/7.3.1/thumb/v7e-m/fpv4-sp/hard\libgcc.a(_arm_cmpdf2.o)
__gethex                                          c:/users/erth0001/user/gnuarmeclipse_photon/eclipse/gnu mcu eclipse/arm embedded gcc/bin/../lib/gcc/arm-none-eabi/7.3.1/../../../../arm-none-eabi/lib/thumb/v7e-m/fpv4-sp/hard\libg_nano.a(lib_a-gdtoa-gethex.o)
                                                  c:/users/erth0001/user/gnuarmeclipse_photon/eclipse/gnu mcu eclipse/arm embedded gcc/bin/../lib/gcc/arm-none-eabi/7.3.1/../../../../arm-none-eabi/lib/thumb/v7e-m/fpv4-sp/hard\libg_nano.a(lib_a-strtod.o)
__global_locale                                   c:/users/erth0001/user/gnuarmeclipse_photon/eclipse/gnu mcu eclipse/arm embedded gcc/bin/../lib/gcc/arm-none-eabi/7.3.1/../../../../arm-none-eabi/lib/thumb/v7e-m/fpv4-sp/hard\libg_nano.a(lib_a-locale.o)
                                                  c:/users/erth0001/user/gnuarmeclipse_photon/eclipse/gnu mcu eclipse/arm embedded gcc/bin/../lib/gcc/arm-none-eabi/7.3.1/../../../../arm-none-eabi/lib/thumb/v7e-m/fpv4-sp/hard\libg_nano.a(lib_a-wctomb_r.o)
                                                  c:/users/erth0001/user/gnuarmeclipse_photon/eclipse/gnu mcu eclipse/arm embedded gcc/bin/../lib/gcc/arm-none-eabi/7.3.1/../../../../arm-none-eabi/lib/thumb/v7e-m/fpv4-sp/hard\libg_nano.a(lib_a-mbtowc_r.o)
                                                  c:/users/erth0001/user/gnuarmeclipse_photon/eclipse/gnu mcu eclipse/arm embedded gcc/bin/../lib/gcc/arm-none-eabi/7.3.1/../../../../arm-none-eabi/lib/thumb/v7e-m/fpv4-sp/hard\libg_nano.a(lib_a-localeconv.o)
                                                  c:/users/erth0001/user/gnuarmeclipse_photon/eclipse/gnu mcu eclipse/arm embedded gcc/bin/../lib/gcc/arm-none-eabi/7.3.1/../../../../arm-none-eabi/lib/thumb/v7e-m/fpv4-sp/hard\libg_nano.a(lib_a-strtol.o)
                                                  c:/users/erth0001/user/gnuarmeclipse_photon/eclipse/gnu mcu eclipse/arm embedded gcc/bin/../lib/gcc/arm-none-eabi/7.3.1/../../../../arm-none-eabi/lib/thumb/v7e-m/fpv4-sp/hard\libg_nano.a(lib_a-strtod.o)
__gtdf2                                           c:/users/erth0001/user/gnuarmeclipse_photon/eclipse/gnu mcu eclipse/arm embedded gcc/bin/../lib/gcc/arm-none-eabi/7.3.1/thumb/v7e-m/fpv4-sp/hard\libgcc.a(_arm_cmpdf2.o)
__heap_limit                                      c:/users/erth0001/user/gnuarmeclipse_photon/eclipse/gnu mcu eclipse/arm embedded gcc/bin/../lib/gcc/arm-none-eabi/7.3.1/../../../../arm-none-eabi/lib/thumb/v7e-m/fpv4-sp/hard\librdimon_nano.a(rdimon-syscalls.o)
__hexdig_fun                                      c:/users/erth0001/user/gnuarmeclipse_photon/eclipse/gnu mcu eclipse/arm embedded gcc/bin/../lib/gcc/arm-none-eabi/7.3.1/../../../../arm-none-eabi/lib/thumb/v7e-m/fpv4-sp/hard\libg_nano.a(lib_a-gdtoa-gethex.o)
                                                  c:/users/erth0001/user/gnuarmeclipse_photon/eclipse/gnu mcu eclipse/arm embedded gcc/bin/../lib/gcc/arm-none-eabi/7.3.1/../../../../arm-none-eabi/lib/thumb/v7e-m/fpv4-sp/hard\libg_nano.a(lib_a-gdtoa-hexnan.o)
__hexnan                                          c:/users/erth0001/user/gnuarmeclipse_photon/eclipse/gnu mcu eclipse/arm embedded gcc/bin/../lib/gcc/arm-none-eabi/7.3.1/../../../../arm-none-eabi/lib/thumb/v7e-m/fpv4-sp/hard\libg_nano.a(lib_a-gdtoa-hexnan.o)
                                                  c:/users/erth0001/user/gnuarmeclipse_photon/eclipse/gnu mcu eclipse/arm embedded gcc/bin/../lib/gcc/arm-none-eabi/7.3.1/../../../../arm-none-eabi/lib/thumb/v7e-m/fpv4-sp/hard\libg_nano.a(lib_a-strtod.o)
__hi0bits                                         c:/users/erth0001/user/gnuarmeclipse_photon/eclipse/gnu mcu eclipse/arm embedded gcc/bin/../lib/gcc/arm-none-eabi/7.3.1/../../../../arm-none-eabi/lib/thumb/v7e-m/fpv4-sp/hard\libg_nano.a(lib_a-mprec.o)
                                                  c:/users/erth0001/user/gnuarmeclipse_photon/eclipse/gnu mcu eclipse/arm embedded gcc/bin/../lib/gcc/arm-none-eabi/7.3.1/../../../../arm-none-eabi/lib/thumb/v7e-m/fpv4-sp/hard\libg_nano.a(lib_a-gdtoa-gethex.o)
                                                  c:/users/erth0001/user/gnuarmeclipse_photon/eclipse/gnu mcu eclipse/arm embedded gcc/bin/../lib/gcc/arm-none-eabi/7.3.1/../../../../arm-none-eabi/lib/thumb/v7e-m/fpv4-sp/hard\libg_nano.a(lib_a-dtoa.o)
__i2b                                             c:/users/erth0001/user/gnuarmeclipse_photon/eclipse/gnu mcu eclipse/arm embedded gcc/bin/../lib/gcc/arm-none-eabi/7.3.1/../../../../arm-none-eabi/lib/thumb/v7e-m/fpv4-sp/hard\libg_nano.a(lib_a-mprec.o)
                                                  c:/users/erth0001/user/gnuarmeclipse_photon/eclipse/gnu mcu eclipse/arm embedded gcc/bin/../lib/gcc/arm-none-eabi/7.3.1/../../../../arm-none-eabi/lib/thumb/v7e-m/fpv4-sp/hard\libg_nano.a(lib_a-dtoa.o)
                                                  c:/users/erth0001/user/gnuarmeclipse_photon/eclipse/gnu mcu eclipse/arm embedded gcc/bin/../lib/gcc/arm-none-eabi/7.3.1/../../../../arm-none-eabi/lib/thumb/v7e-m/fpv4-sp/hard\libg_nano.a(lib_a-strtod.o)
__ledf2                                           c:/users/erth0001/user/gnuarmeclipse_photon/eclipse/gnu mcu eclipse/arm embedded gcc/bin/../lib/gcc/arm-none-eabi/7.3.1/thumb/v7e-m/fpv4-sp/hard\libgcc.a(_arm_cmpdf2.o)
__lo0bits                                         c:/users/erth0001/user/gnuarmeclipse_photon/eclipse/gnu mcu eclipse/arm embedded gcc/bin/../lib/gcc/arm-none-eabi/7.3.1/../../../../arm-none-eabi/lib/thumb/v7e-m/fpv4-sp/hard\libg_nano.a(lib_a-mprec.o)
__locale_ctype_ptr                                c:/users/erth0001/user/gnuarmeclipse_photon/eclipse/gnu mcu eclipse/arm embedded gcc/bin/../lib/gcc/arm-none-eabi/7.3.1/../../../../arm-none-eabi/lib/thumb/v7e-m/fpv4-sp/hard\libg_nano.a(lib_a-locale.o)
__locale_ctype_ptr_l                              c:/users/erth0001/user/gnuarmeclipse_photon/eclipse/gnu mcu eclipse/arm embedded gcc/bin/../lib/gcc/arm-none-eabi/7.3.1/../../../../arm-none-eabi/lib/thumb/v7e-m/fpv4-sp/hard\libg_nano.a(lib_a-locale.o)
                                                  c:/users/erth0001/user/gnuarmeclipse_photon/eclipse/gnu mcu eclipse/arm embedded gcc/bin/../lib/gcc/arm-none-eabi/7.3.1/../../../../arm-none-eabi/lib/thumb/v7e-m/fpv4-sp/hard\libg_nano.a(lib_a-strtol.o)
__locale_mb_cur_max                               c:/users/erth0001/user/gnuarmeclipse_photon/eclipse/gnu mcu eclipse/arm embedded gcc/bin/../lib/gcc/arm-none-eabi/7.3.1/../../../../arm-none-eabi/lib/thumb/v7e-m/fpv4-sp/hard\libg_nano.a(lib_a-locale.o)
__localeconv_l                                    c:/users/erth0001/user/gnuarmeclipse_photon/eclipse/gnu mcu eclipse/arm embedded gcc/bin/../lib/gcc/arm-none-eabi/7.3.1/../../../../arm-none-eabi/lib/thumb/v7e-m/fpv4-sp/hard\libg_nano.a(lib_a-localeconv.o)
                                                  c:/users/erth0001/user/gnuarmeclipse_photon/eclipse/gnu mcu eclipse/arm embedded gcc/bin/../lib/gcc/arm-none-eabi/7.3.1/../../../../arm-none-eabi/lib/thumb/v7e-m/fpv4-sp/hard\libg_nano.a(lib_a-gdtoa-gethex.o)
                                                  c:/users/erth0001/user/gnuarmeclipse_photon/eclipse/gnu mcu eclipse/arm embedded gcc/bin/../lib/gcc/arm-none-eabi/7.3.1/../../../../arm-none-eabi/lib/thumb/v7e-m/fpv4-sp/hard\libg_nano.a(lib_a-strtod.o)
__lshift                                          c:/users/erth0001/user/gnuarmeclipse_photon/eclipse/gnu mcu eclipse/arm embedded gcc/bin/../lib/gcc/arm-none-eabi/7.3.1/../../../../arm-none-eabi/lib/thumb/v7e-m/fpv4-sp/hard\libg_nano.a(lib_a-mprec.o)
                                                  c:/users/erth0001/user/gnuarmeclipse_photon/eclipse/gnu mcu eclipse/arm embedded gcc/bin/../lib/gcc/arm-none-eabi/7.3.1/../../../../arm-none-eabi/lib/thumb/v7e-m/fpv4-sp/hard\libg_nano.a(lib_a-gdtoa-gethex.o)
                                                  c:/users/erth0001/user/gnuarmeclipse_photon/eclipse/gnu mcu eclipse/arm embedded gcc/bin/../lib/gcc/arm-none-eabi/7.3.1/../../../../arm-none-eabi/lib/thumb/v7e-m/fpv4-sp/hard\libg_nano.a(lib_a-dtoa.o)
                                                  c:/users/erth0001/user/gnuarmeclipse_photon/eclipse/gnu mcu eclipse/arm embedded gcc/bin/../lib/gcc/arm-none-eabi/7.3.1/../../../../arm-none-eabi/lib/thumb/v7e-m/fpv4-sp/hard\libg_nano.a(lib_a-strtod.o)
__ltdf2                                           c:/users/erth0001/user/gnuarmeclipse_photon/eclipse/gnu mcu eclipse/arm embedded gcc/bin/../lib/gcc/arm-none-eabi/7.3.1/thumb/v7e-m/fpv4-sp/hard\libgcc.a(_arm_cmpdf2.o)
__malloc_free_list                                c:/users/erth0001/user/gnuarmeclipse_photon/eclipse/gnu mcu eclipse/arm embedded gcc/bin/../lib/gcc/arm-none-eabi/7.3.1/../../../../arm-none-eabi/lib/thumb/v7e-m/fpv4-sp/hard\libg_nano.a(lib_a-nano-mallocr.o)
                                                  c:/users/erth0001/user/gnuarmeclipse_photon/eclipse/gnu mcu eclipse/arm embedded gcc/bin/../lib/gcc/arm-none-eabi/7.3.1/../../../../arm-none-eabi/lib/thumb/v7e-m/fpv4-sp/hard\libg_nano.a(lib_a-nano-freer.o)
__malloc_lock                                     c:/users/erth0001/user/gnuarmeclipse_photon/eclipse/gnu mcu eclipse/arm embedded gcc/bin/../lib/gcc/arm-none-eabi/7.3.1/../../../../arm-none-eabi/lib/thumb/v7e-m/fpv4-sp/hard\libg_nano.a(lib_a-mlock.o)
                                                  c:/users/erth0001/user/gnuarmeclipse_photon/eclipse/gnu mcu eclipse/arm embedded gcc/bin/../lib/gcc/arm-none-eabi/7.3.1/../../../../arm-none-eabi/lib/thumb/v7e-m/fpv4-sp/hard\libg_nano.a(lib_a-nano-mallocr.o)
                                                  c:/users/erth0001/user/gnuarmeclipse_photon/eclipse/gnu mcu eclipse/arm embedded gcc/bin/../lib/gcc/arm-none-eabi/7.3.1/../../../../arm-none-eabi/lib/thumb/v7e-m/fpv4-sp/hard\libg_nano.a(lib_a-nano-freer.o)
__malloc_sbrk_start                               c:/users/erth0001/user/gnuarmeclipse_photon/eclipse/gnu mcu eclipse/arm embedded gcc/bin/../lib/gcc/arm-none-eabi/7.3.1/../../../../arm-none-eabi/lib/thumb/v7e-m/fpv4-sp/hard\libg_nano.a(lib_a-nano-mallocr.o)
__malloc_unlock                                   c:/users/erth0001/user/gnuarmeclipse_photon/eclipse/gnu mcu eclipse/arm embedded gcc/bin/../lib/gcc/arm-none-eabi/7.3.1/../../../../arm-none-eabi/lib/thumb/v7e-m/fpv4-sp/hard\libg_nano.a(lib_a-mlock.o)
                                                  c:/users/erth0001/user/gnuarmeclipse_photon/eclipse/gnu mcu eclipse/arm embedded gcc/bin/../lib/gcc/arm-none-eabi/7.3.1/../../../../arm-none-eabi/lib/thumb/v7e-m/fpv4-sp/hard\libg_nano.a(lib_a-nano-mallocr.o)
                                                  c:/users/erth0001/user/gnuarmeclipse_photon/eclipse/gnu mcu eclipse/arm embedded gcc/bin/../lib/gcc/arm-none-eabi/7.3.1/../../../../arm-none-eabi/lib/thumb/v7e-m/fpv4-sp/hard\libg_nano.a(lib_a-nano-freer.o)
__match                                           c:/users/erth0001/user/gnuarmeclipse_photon/eclipse/gnu mcu eclipse/arm embedded gcc/bin/../lib/gcc/arm-none-eabi/7.3.1/../../../../arm-none-eabi/lib/thumb/v7e-m/fpv4-sp/hard\libg_nano.a(lib_a-gdtoa-hexnan.o)
                                                  c:/users/erth0001/user/gnuarmeclipse_photon/eclipse/gnu mcu eclipse/arm embedded gcc/bin/../lib/gcc/arm-none-eabi/7.3.1/../../../../arm-none-eabi/lib/thumb/v7e-m/fpv4-sp/hard\libg_nano.a(lib_a-strtod.o)
__mcmp                                            c:/users/erth0001/user/gnuarmeclipse_photon/eclipse/gnu mcu eclipse/arm embedded gcc/bin/../lib/gcc/arm-none-eabi/7.3.1/../../../../arm-none-eabi/lib/thumb/v7e-m/fpv4-sp/hard\libg_nano.a(lib_a-mprec.o)
                                                  c:/users/erth0001/user/gnuarmeclipse_photon/eclipse/gnu mcu eclipse/arm embedded gcc/bin/../lib/gcc/arm-none-eabi/7.3.1/../../../../arm-none-eabi/lib/thumb/v7e-m/fpv4-sp/hard\libg_nano.a(lib_a-dtoa.o)
                                                  c:/users/erth0001/user/gnuarmeclipse_photon/eclipse/gnu mcu eclipse/arm embedded gcc/bin/../lib/gcc/arm-none-eabi/7.3.1/../../../../arm-none-eabi/lib/thumb/v7e-m/fpv4-sp/hard\libg_nano.a(lib_a-strtod.o)
__mdiff                                           c:/users/erth0001/user/gnuarmeclipse_photon/eclipse/gnu mcu eclipse/arm embedded gcc/bin/../lib/gcc/arm-none-eabi/7.3.1/../../../../arm-none-eabi/lib/thumb/v7e-m/fpv4-sp/hard\libg_nano.a(lib_a-mprec.o)
                                                  c:/users/erth0001/user/gnuarmeclipse_photon/eclipse/gnu mcu eclipse/arm embedded gcc/bin/../lib/gcc/arm-none-eabi/7.3.1/../../../../arm-none-eabi/lib/thumb/v7e-m/fpv4-sp/hard\libg_nano.a(lib_a-dtoa.o)
                                                  c:/users/erth0001/user/gnuarmeclipse_photon/eclipse/gnu mcu eclipse/arm embedded gcc/bin/../lib/gcc/arm-none-eabi/7.3.1/../../../../arm-none-eabi/lib/thumb/v7e-m/fpv4-sp/hard\libg_nano.a(lib_a-strtod.o)
__mprec_bigtens                                   c:/users/erth0001/user/gnuarmeclipse_photon/eclipse/gnu mcu eclipse/arm embedded gcc/bin/../lib/gcc/arm-none-eabi/7.3.1/../../../../arm-none-eabi/lib/thumb/v7e-m/fpv4-sp/hard\libg_nano.a(lib_a-mprec.o)
                                                  c:/users/erth0001/user/gnuarmeclipse_photon/eclipse/gnu mcu eclipse/arm embedded gcc/bin/../lib/gcc/arm-none-eabi/7.3.1/../../../../arm-none-eabi/lib/thumb/v7e-m/fpv4-sp/hard\libg_nano.a(lib_a-dtoa.o)
                                                  c:/users/erth0001/user/gnuarmeclipse_photon/eclipse/gnu mcu eclipse/arm embedded gcc/bin/../lib/gcc/arm-none-eabi/7.3.1/../../../../arm-none-eabi/lib/thumb/v7e-m/fpv4-sp/hard\libg_nano.a(lib_a-strtod.o)
__mprec_tens                                      c:/users/erth0001/user/gnuarmeclipse_photon/eclipse/gnu mcu eclipse/arm embedded gcc/bin/../lib/gcc/arm-none-eabi/7.3.1/../../../../arm-none-eabi/lib/thumb/v7e-m/fpv4-sp/hard\libg_nano.a(lib_a-mprec.o)
                                                  c:/users/erth0001/user/gnuarmeclipse_photon/eclipse/gnu mcu eclipse/arm embedded gcc/bin/../lib/gcc/arm-none-eabi/7.3.1/../../../../arm-none-eabi/lib/thumb/v7e-m/fpv4-sp/hard\libg_nano.a(lib_a-dtoa.o)
                                                  c:/users/erth0001/user/gnuarmeclipse_photon/eclipse/gnu mcu eclipse/arm embedded gcc/bin/../lib/gcc/arm-none-eabi/7.3.1/../../../../arm-none-eabi/lib/thumb/v7e-m/fpv4-sp/hard\libg_nano.a(lib_a-strtod.o)
__mprec_tinytens                                  c:/users/erth0001/user/gnuarmeclipse_photon/eclipse/gnu mcu eclipse/arm embedded gcc/bin/../lib/gcc/arm-none-eabi/7.3.1/../../../../arm-none-eabi/lib/thumb/v7e-m/fpv4-sp/hard\libg_nano.a(lib_a-mprec.o)
__muldf3                                          c:/users/erth0001/user/gnuarmeclipse_photon/eclipse/gnu mcu eclipse/arm embedded gcc/bin/../lib/gcc/arm-none-eabi/7.3.1/thumb/v7e-m/fpv4-sp/hard\libgcc.a(_arm_muldivdf3.o)
__multadd                                         c:/users/erth0001/user/gnuarmeclipse_photon/eclipse/gnu mcu eclipse/arm embedded gcc/bin/../lib/gcc/arm-none-eabi/7.3.1/../../../../arm-none-eabi/lib/thumb/v7e-m/fpv4-sp/hard\libg_nano.a(lib_a-mprec.o)
                                                  c:/users/erth0001/user/gnuarmeclipse_photon/eclipse/gnu mcu eclipse/arm embedded gcc/bin/../lib/gcc/arm-none-eabi/7.3.1/../../../../arm-none-eabi/lib/thumb/v7e-m/fpv4-sp/hard\libg_nano.a(lib_a-dtoa.o)
__multiply                                        c:/users/erth0001/user/gnuarmeclipse_photon/eclipse/gnu mcu eclipse/arm embedded gcc/bin/../lib/gcc/arm-none-eabi/7.3.1/../../../../arm-none-eabi/lib/thumb/v7e-m/fpv4-sp/hard\libg_nano.a(lib_a-mprec.o)
                                                  c:/users/erth0001/user/gnuarmeclipse_photon/eclipse/gnu mcu eclipse/arm embedded gcc/bin/../lib/gcc/arm-none-eabi/7.3.1/../../../../arm-none-eabi/lib/thumb/v7e-m/fpv4-sp/hard\libg_nano.a(lib_a-dtoa.o)
                                                  c:/users/erth0001/user/gnuarmeclipse_photon/eclipse/gnu mcu eclipse/arm embedded gcc/bin/../lib/gcc/arm-none-eabi/7.3.1/../../../../arm-none-eabi/lib/thumb/v7e-m/fpv4-sp/hard\libg_nano.a(lib_a-strtod.o)
__nedf2                                           c:/users/erth0001/user/gnuarmeclipse_photon/eclipse/gnu mcu eclipse/arm embedded gcc/bin/../lib/gcc/arm-none-eabi/7.3.1/thumb/v7e-m/fpv4-sp/hard\libgcc.a(_arm_cmpdf2.o)
__pow5mult                                        c:/users/erth0001/user/gnuarmeclipse_photon/eclipse/gnu mcu eclipse/arm embedded gcc/bin/../lib/gcc/arm-none-eabi/7.3.1/../../../../arm-none-eabi/lib/thumb/v7e-m/fpv4-sp/hard\libg_nano.a(lib_a-mprec.o)
                                                  c:/users/erth0001/user/gnuarmeclipse_photon/eclipse/gnu mcu eclipse/arm embedded gcc/bin/../lib/gcc/arm-none-eabi/7.3.1/../../../../arm-none-eabi/lib/thumb/v7e-m/fpv4-sp/hard\libg_nano.a(lib_a-dtoa.o)
                                                  c:/users/erth0001/user/gnuarmeclipse_photon/eclipse/gnu mcu eclipse/arm embedded gcc/bin/../lib/gcc/arm-none-eabi/7.3.1/../../../../arm-none-eabi/lib/thumb/v7e-m/fpv4-sp/hard\libg_nano.a(lib_a-strtod.o)
__ratio                                           c:/users/erth0001/user/gnuarmeclipse_photon/eclipse/gnu mcu eclipse/arm embedded gcc/bin/../lib/gcc/arm-none-eabi/7.3.1/../../../../arm-none-eabi/lib/thumb/v7e-m/fpv4-sp/hard\libg_nano.a(lib_a-mprec.o)
                                                  c:/users/erth0001/user/gnuarmeclipse_photon/eclipse/gnu mcu eclipse/arm embedded gcc/bin/../lib/gcc/arm-none-eabi/7.3.1/../../../../arm-none-eabi/lib/thumb/v7e-m/fpv4-sp/hard\libg_nano.a(lib_a-strtod.o)
__s2b                                             c:/users/erth0001/user/gnuarmeclipse_photon/eclipse/gnu mcu eclipse/arm embedded gcc/bin/../lib/gcc/arm-none-eabi/7.3.1/../../../../arm-none-eabi/lib/thumb/v7e-m/fpv4-sp/hard\libg_nano.a(lib_a-mprec.o)
                                                  c:/users/erth0001/user/gnuarmeclipse_photon/eclipse/gnu mcu eclipse/arm embedded gcc/bin/../lib/gcc/arm-none-eabi/7.3.1/../../../../arm-none-eabi/lib/thumb/v7e-m/fpv4-sp/hard\libg_nano.a(lib_a-strtod.o)
__sclose                                          c:/users/erth0001/user/gnuarmeclipse_photon/eclipse/gnu mcu eclipse/arm embedded gcc/bin/../lib/gcc/arm-none-eabi/7.3.1/../../../../arm-none-eabi/lib/thumb/v7e-m/fpv4-sp/hard\libg_nano.a(lib_a-stdio.o)
                                                  c:/users/erth0001/user/gnuarmeclipse_photon/eclipse/gnu mcu eclipse/arm embedded gcc/bin/../lib/gcc/arm-none-eabi/7.3.1/../../../../arm-none-eabi/lib/thumb/v7e-m/fpv4-sp/hard\libg_nano.a(lib_a-findfp.o)
__seofread                                        c:/users/erth0001/user/gnuarmeclipse_photon/eclipse/gnu mcu eclipse/arm embedded gcc/bin/../lib/gcc/arm-none-eabi/7.3.1/../../../../arm-none-eabi/lib/thumb/v7e-m/fpv4-sp/hard\libg_nano.a(lib_a-stdio.o)
__sf_fake_stderr                                  c:/users/erth0001/user/gnuarmeclipse_photon/eclipse/gnu mcu eclipse/arm embedded gcc/bin/../lib/gcc/arm-none-eabi/7.3.1/../../../../arm-none-eabi/lib/thumb/v7e-m/fpv4-sp/hard\libg_nano.a(lib_a-findfp.o)
                                                  c:/users/erth0001/user/gnuarmeclipse_photon/eclipse/gnu mcu eclipse/arm embedded gcc/bin/../lib/gcc/arm-none-eabi/7.3.1/../../../../arm-none-eabi/lib/thumb/v7e-m/fpv4-sp/hard\libg_nano.a(lib_a-fflush.o)
                                                  c:/users/erth0001/user/gnuarmeclipse_photon/eclipse/gnu mcu eclipse/arm embedded gcc/bin/../lib/gcc/arm-none-eabi/7.3.1/../../../../arm-none-eabi/lib/thumb/v7e-m/fpv4-sp/hard\libg_nano.a(lib_a-wsetup.o)
                                                  c:/users/erth0001/user/gnuarmeclipse_photon/eclipse/gnu mcu eclipse/arm embedded gcc/bin/../lib/gcc/arm-none-eabi/7.3.1/../../../../arm-none-eabi/lib/thumb/v7e-m/fpv4-sp/hard\libg_nano.a(lib_a-wbuf.o)
                                                  c:/users/erth0001/user/gnuarmeclipse_photon/eclipse/gnu mcu eclipse/arm embedded gcc/bin/../lib/gcc/arm-none-eabi/7.3.1/../../../../arm-none-eabi/lib/thumb/v7e-m/fpv4-sp/hard\libg_nano.a(lib_a-nano-vfprintf.o)
                                                  c:/users/erth0001/user/gnuarmeclipse_photon/eclipse/gnu mcu eclipse/arm embedded gcc/bin/../lib/gcc/arm-none-eabi/7.3.1/../../../../arm-none-eabi/lib/thumb/v7e-m/fpv4-sp/hard\libg_nano.a(lib_a-impure.o)
__sf_fake_stdin                                   c:/users/erth0001/user/gnuarmeclipse_photon/eclipse/gnu mcu eclipse/arm embedded gcc/bin/../lib/gcc/arm-none-eabi/7.3.1/../../../../arm-none-eabi/lib/thumb/v7e-m/fpv4-sp/hard\libg_nano.a(lib_a-findfp.o)
                                                  c:/users/erth0001/user/gnuarmeclipse_photon/eclipse/gnu mcu eclipse/arm embedded gcc/bin/../lib/gcc/arm-none-eabi/7.3.1/../../../../arm-none-eabi/lib/thumb/v7e-m/fpv4-sp/hard\libg_nano.a(lib_a-fflush.o)
                                                  c:/users/erth0001/user/gnuarmeclipse_photon/eclipse/gnu mcu eclipse/arm embedded gcc/bin/../lib/gcc/arm-none-eabi/7.3.1/../../../../arm-none-eabi/lib/thumb/v7e-m/fpv4-sp/hard\libg_nano.a(lib_a-wsetup.o)
                                                  c:/users/erth0001/user/gnuarmeclipse_photon/eclipse/gnu mcu eclipse/arm embedded gcc/bin/../lib/gcc/arm-none-eabi/7.3.1/../../../../arm-none-eabi/lib/thumb/v7e-m/fpv4-sp/hard\libg_nano.a(lib_a-wbuf.o)
                                                  c:/users/erth0001/user/gnuarmeclipse_photon/eclipse/gnu mcu eclipse/arm embedded gcc/bin/../lib/gcc/arm-none-eabi/7.3.1/../../../../arm-none-eabi/lib/thumb/v7e-m/fpv4-sp/hard\libg_nano.a(lib_a-nano-vfprintf.o)
                                                  c:/users/erth0001/user/gnuarmeclipse_photon/eclipse/gnu mcu eclipse/arm embedded gcc/bin/../lib/gcc/arm-none-eabi/7.3.1/../../../../arm-none-eabi/lib/thumb/v7e-m/fpv4-sp/hard\libg_nano.a(lib_a-impure.o)
__sf_fake_stdout                                  c:/users/erth0001/user/gnuarmeclipse_photon/eclipse/gnu mcu eclipse/arm embedded gcc/bin/../lib/gcc/arm-none-eabi/7.3.1/../../../../arm-none-eabi/lib/thumb/v7e-m/fpv4-sp/hard\libg_nano.a(lib_a-findfp.o)
                                                  c:/users/erth0001/user/gnuarmeclipse_photon/eclipse/gnu mcu eclipse/arm embedded gcc/bin/../lib/gcc/arm-none-eabi/7.3.1/../../../../arm-none-eabi/lib/thumb/v7e-m/fpv4-sp/hard\libg_nano.a(lib_a-fflush.o)
                                                  c:/users/erth0001/user/gnuarmeclipse_photon/eclipse/gnu mcu eclipse/arm embedded gcc/bin/../lib/gcc/arm-none-eabi/7.3.1/../../../../arm-none-eabi/lib/thumb/v7e-m/fpv4-sp/hard\libg_nano.a(lib_a-wsetup.o)
                                                  c:/users/erth0001/user/gnuarmeclipse_photon/eclipse/gnu mcu eclipse/arm embedded gcc/bin/../lib/gcc/arm-none-eabi/7.3.1/../../../../arm-none-eabi/lib/thumb/v7e-m/fpv4-sp/hard\libg_nano.a(lib_a-wbuf.o)
                                                  c:/users/erth0001/user/gnuarmeclipse_photon/eclipse/gnu mcu eclipse/arm embedded gcc/bin/../lib/gcc/arm-none-eabi/7.3.1/../../../../arm-none-eabi/lib/thumb/v7e-m/fpv4-sp/hard\libg_nano.a(lib_a-nano-vfprintf.o)
                                                  c:/users/erth0001/user/gnuarmeclipse_photon/eclipse/gnu mcu eclipse/arm embedded gcc/bin/../lib/gcc/arm-none-eabi/7.3.1/../../../../arm-none-eabi/lib/thumb/v7e-m/fpv4-sp/hard\libg_nano.a(lib_a-impure.o)
__sflush_r                                        c:/users/erth0001/user/gnuarmeclipse_photon/eclipse/gnu mcu eclipse/arm embedded gcc/bin/../lib/gcc/arm-none-eabi/7.3.1/../../../../arm-none-eabi/lib/thumb/v7e-m/fpv4-sp/hard\libg_nano.a(lib_a-fflush.o)
__sfmoreglue                                      c:/users/erth0001/user/gnuarmeclipse_photon/eclipse/gnu mcu eclipse/arm embedded gcc/bin/../lib/gcc/arm-none-eabi/7.3.1/../../../../arm-none-eabi/lib/thumb/v7e-m/fpv4-sp/hard\libg_nano.a(lib_a-findfp.o)
__sfp                                             c:/users/erth0001/user/gnuarmeclipse_photon/eclipse/gnu mcu eclipse/arm embedded gcc/bin/../lib/gcc/arm-none-eabi/7.3.1/../../../../arm-none-eabi/lib/thumb/v7e-m/fpv4-sp/hard\libg_nano.a(lib_a-findfp.o)
__sfp_lock_acquire                                c:/users/erth0001/user/gnuarmeclipse_photon/eclipse/gnu mcu eclipse/arm embedded gcc/bin/../lib/gcc/arm-none-eabi/7.3.1/../../../../arm-none-eabi/lib/thumb/v7e-m/fpv4-sp/hard\libg_nano.a(lib_a-findfp.o)
__sfp_lock_release                                c:/users/erth0001/user/gnuarmeclipse_photon/eclipse/gnu mcu eclipse/arm embedded gcc/bin/../lib/gcc/arm-none-eabi/7.3.1/../../../../arm-none-eabi/lib/thumb/v7e-m/fpv4-sp/hard\libg_nano.a(lib_a-findfp.o)
__sfputs_r                                        c:/users/erth0001/user/gnuarmeclipse_photon/eclipse/gnu mcu eclipse/arm embedded gcc/bin/../lib/gcc/arm-none-eabi/7.3.1/../../../../arm-none-eabi/lib/thumb/v7e-m/fpv4-sp/hard\libg_nano.a(lib_a-nano-vfprintf.o)
__sfvwrite_r                                      c:/users/erth0001/user/gnuarmeclipse_photon/eclipse/gnu mcu eclipse/arm embedded gcc/bin/../lib/gcc/arm-none-eabi/7.3.1/../../../../arm-none-eabi/lib/thumb/v7e-m/fpv4-sp/hard\libg_nano.a(lib_a-fvwrite.o)
                                                  c:/users/erth0001/user/gnuarmeclipse_photon/eclipse/gnu mcu eclipse/arm embedded gcc/bin/../lib/gcc/arm-none-eabi/7.3.1/../../../../arm-none-eabi/lib/thumb/v7e-m/fpv4-sp/hard\libg_nano.a(lib_a-nano-vfprintf.o)
__sinit                                           c:/users/erth0001/user/gnuarmeclipse_photon/eclipse/gnu mcu eclipse/arm embedded gcc/bin/../lib/gcc/arm-none-eabi/7.3.1/../../../../arm-none-eabi/lib/thumb/v7e-m/fpv4-sp/hard\libg_nano.a(lib_a-findfp.o)
                                                  c:/users/erth0001/user/gnuarmeclipse_photon/eclipse/gnu mcu eclipse/arm embedded gcc/bin/../lib/gcc/arm-none-eabi/7.3.1/../../../../arm-none-eabi/lib/thumb/v7e-m/fpv4-sp/hard\librdimon_nano.a(rdimon-syscalls.o)
                                                  c:/users/erth0001/user/gnuarmeclipse_photon/eclipse/gnu mcu eclipse/arm embedded gcc/bin/../lib/gcc/arm-none-eabi/7.3.1/../../../../arm-none-eabi/lib/thumb/v7e-m/fpv4-sp/hard\libg_nano.a(lib_a-fflush.o)
                                                  c:/users/erth0001/user/gnuarmeclipse_photon/eclipse/gnu mcu eclipse/arm embedded gcc/bin/../lib/gcc/arm-none-eabi/7.3.1/../../../../arm-none-eabi/lib/thumb/v7e-m/fpv4-sp/hard\libg_nano.a(lib_a-wsetup.o)
                                                  c:/users/erth0001/user/gnuarmeclipse_photon/eclipse/gnu mcu eclipse/arm embedded gcc/bin/../lib/gcc/arm-none-eabi/7.3.1/../../../../arm-none-eabi/lib/thumb/v7e-m/fpv4-sp/hard\libg_nano.a(lib_a-wbuf.o)
                                                  c:/users/erth0001/user/gnuarmeclipse_photon/eclipse/gnu mcu eclipse/arm embedded gcc/bin/../lib/gcc/arm-none-eabi/7.3.1/../../../../arm-none-eabi/lib/thumb/v7e-m/fpv4-sp/hard\libg_nano.a(lib_a-nano-vfprintf.o)
                                                  c:/users/erth0001/user/gnuarmeclipse_photon/eclipse/gnu mcu eclipse/arm embedded gcc/bin/../lib/gcc/arm-none-eabi/7.3.1/../../../../arm-none-eabi/lib/thumb/v7e-m/fpv4-sp/hard\libg_nano.a(lib_a-printf.o)
__sinit_lock_acquire                              c:/users/erth0001/user/gnuarmeclipse_photon/eclipse/gnu mcu eclipse/arm embedded gcc/bin/../lib/gcc/arm-none-eabi/7.3.1/../../../../arm-none-eabi/lib/thumb/v7e-m/fpv4-sp/hard\libg_nano.a(lib_a-findfp.o)
__sinit_lock_release                              c:/users/erth0001/user/gnuarmeclipse_photon/eclipse/gnu mcu eclipse/arm embedded gcc/bin/../lib/gcc/arm-none-eabi/7.3.1/../../../../arm-none-eabi/lib/thumb/v7e-m/fpv4-sp/hard\libg_nano.a(lib_a-findfp.o)
__smakebuf_r                                      c:/users/erth0001/user/gnuarmeclipse_photon/eclipse/gnu mcu eclipse/arm embedded gcc/bin/../lib/gcc/arm-none-eabi/7.3.1/../../../../arm-none-eabi/lib/thumb/v7e-m/fpv4-sp/hard\libg_nano.a(lib_a-makebuf.o)
                                                  c:/users/erth0001/user/gnuarmeclipse_photon/eclipse/gnu mcu eclipse/arm embedded gcc/bin/../lib/gcc/arm-none-eabi/7.3.1/../../../../arm-none-eabi/lib/thumb/v7e-m/fpv4-sp/hard\libg_nano.a(lib_a-wsetup.o)
__sprint_r                                        c:/users/erth0001/user/gnuarmeclipse_photon/eclipse/gnu mcu eclipse/arm embedded gcc/bin/../lib/gcc/arm-none-eabi/7.3.1/../../../../arm-none-eabi/lib/thumb/v7e-m/fpv4-sp/hard\libg_nano.a(lib_a-nano-vfprintf.o)
__sread                                           c:/users/erth0001/user/gnuarmeclipse_photon/eclipse/gnu mcu eclipse/arm embedded gcc/bin/../lib/gcc/arm-none-eabi/7.3.1/../../../../arm-none-eabi/lib/thumb/v7e-m/fpv4-sp/hard\libg_nano.a(lib_a-stdio.o)
                                                  c:/users/erth0001/user/gnuarmeclipse_photon/eclipse/gnu mcu eclipse/arm embedded gcc/bin/../lib/gcc/arm-none-eabi/7.3.1/../../../../arm-none-eabi/lib/thumb/v7e-m/fpv4-sp/hard\libg_nano.a(lib_a-findfp.o)
__sseek                                           c:/users/erth0001/user/gnuarmeclipse_photon/eclipse/gnu mcu eclipse/arm embedded gcc/bin/../lib/gcc/arm-none-eabi/7.3.1/../../../../arm-none-eabi/lib/thumb/v7e-m/fpv4-sp/hard\libg_nano.a(lib_a-stdio.o)
                                                  c:/users/erth0001/user/gnuarmeclipse_photon/eclipse/gnu mcu eclipse/arm embedded gcc/bin/../lib/gcc/arm-none-eabi/7.3.1/../../../../arm-none-eabi/lib/thumb/v7e-m/fpv4-sp/hard\libg_nano.a(lib_a-findfp.o)
__ssprint_r                                       c:/users/erth0001/user/gnuarmeclipse_photon/eclipse/gnu mcu eclipse/arm embedded gcc/bin/../lib/gcc/arm-none-eabi/7.3.1/../../../../arm-none-eabi/lib/thumb/v7e-m/fpv4-sp/hard\libg_nano.a(lib_a-nano-svfprintf.o)
__ssputs_r                                        c:/users/erth0001/user/gnuarmeclipse_photon/eclipse/gnu mcu eclipse/arm embedded gcc/bin/../lib/gcc/arm-none-eabi/7.3.1/../../../../arm-none-eabi/lib/thumb/v7e-m/fpv4-sp/hard\libg_nano.a(lib_a-nano-svfprintf.o)
__subdf3                                          c:/users/erth0001/user/gnuarmeclipse_photon/eclipse/gnu mcu eclipse/arm embedded gcc/bin/../lib/gcc/arm-none-eabi/7.3.1/thumb/v7e-m/fpv4-sp/hard\libgcc.a(_arm_addsubdf3.o)
__swbuf                                           c:/users/erth0001/user/gnuarmeclipse_photon/eclipse/gnu mcu eclipse/arm embedded gcc/bin/../lib/gcc/arm-none-eabi/7.3.1/../../../../arm-none-eabi/lib/thumb/v7e-m/fpv4-sp/hard\libg_nano.a(lib_a-wbuf.o)
__swbuf_r                                         c:/users/erth0001/user/gnuarmeclipse_photon/eclipse/gnu mcu eclipse/arm embedded gcc/bin/../lib/gcc/arm-none-eabi/7.3.1/../../../../arm-none-eabi/lib/thumb/v7e-m/fpv4-sp/hard\libg_nano.a(lib_a-wbuf.o)
                                                  c:/users/erth0001/user/gnuarmeclipse_photon/eclipse/gnu mcu eclipse/arm embedded gcc/bin/../lib/gcc/arm-none-eabi/7.3.1/../../../../arm-none-eabi/lib/thumb/v7e-m/fpv4-sp/hard\libg_nano.a(lib_a-nano-vfprintf.o)
__swhatbuf_r                                      c:/users/erth0001/user/gnuarmeclipse_photon/eclipse/gnu mcu eclipse/arm embedded gcc/bin/../lib/gcc/arm-none-eabi/7.3.1/../../../../arm-none-eabi/lib/thumb/v7e-m/fpv4-sp/hard\libg_nano.a(lib_a-makebuf.o)
__swrite                                          c:/users/erth0001/user/gnuarmeclipse_photon/eclipse/gnu mcu eclipse/arm embedded gcc/bin/../lib/gcc/arm-none-eabi/7.3.1/../../../../arm-none-eabi/lib/thumb/v7e-m/fpv4-sp/hard\libg_nano.a(lib_a-stdio.o)
                                                  c:/users/erth0001/user/gnuarmeclipse_photon/eclipse/gnu mcu eclipse/arm embedded gcc/bin/../lib/gcc/arm-none-eabi/7.3.1/../../../../arm-none-eabi/lib/thumb/v7e-m/fpv4-sp/hard\libg_nano.a(lib_a-findfp.o)
__swsetup_r                                       c:/users/erth0001/user/gnuarmeclipse_photon/eclipse/gnu mcu eclipse/arm embedded gcc/bin/../lib/gcc/arm-none-eabi/7.3.1/../../../../arm-none-eabi/lib/thumb/v7e-m/fpv4-sp/hard\libg_nano.a(lib_a-wsetup.o)
                                                  c:/users/erth0001/user/gnuarmeclipse_photon/eclipse/gnu mcu eclipse/arm embedded gcc/bin/../lib/gcc/arm-none-eabi/7.3.1/../../../../arm-none-eabi/lib/thumb/v7e-m/fpv4-sp/hard\libg_nano.a(lib_a-fvwrite.o)
                                                  c:/users/erth0001/user/gnuarmeclipse_photon/eclipse/gnu mcu eclipse/arm embedded gcc/bin/../lib/gcc/arm-none-eabi/7.3.1/../../../../arm-none-eabi/lib/thumb/v7e-m/fpv4-sp/hard\libg_nano.a(lib_a-wbuf.o)
                                                  c:/users/erth0001/user/gnuarmeclipse_photon/eclipse/gnu mcu eclipse/arm embedded gcc/bin/../lib/gcc/arm-none-eabi/7.3.1/../../../../arm-none-eabi/lib/thumb/v7e-m/fpv4-sp/hard\libg_nano.a(lib_a-nano-vfprintf.o)
__truncdfsf2                                      c:/users/erth0001/user/gnuarmeclipse_photon/eclipse/gnu mcu eclipse/arm embedded gcc/bin/../lib/gcc/arm-none-eabi/7.3.1/thumb/v7e-m/fpv4-sp/hard\libgcc.a(_arm_truncdfsf2.o)
__ulp                                             c:/users/erth0001/user/gnuarmeclipse_photon/eclipse/gnu mcu eclipse/arm embedded gcc/bin/../lib/gcc/arm-none-eabi/7.3.1/../../../../arm-none-eabi/lib/thumb/v7e-m/fpv4-sp/hard\libg_nano.a(lib_a-mprec.o)
                                                  c:/users/erth0001/user/gnuarmeclipse_photon/eclipse/gnu mcu eclipse/arm embedded gcc/bin/../lib/gcc/arm-none-eabi/7.3.1/../../../../arm-none-eabi/lib/thumb/v7e-m/fpv4-sp/hard\libg_nano.a(lib_a-strtod.o)
__unorddf2                                        c:/users/erth0001/user/gnuarmeclipse_photon/eclipse/gnu mcu eclipse/arm embedded gcc/bin/../lib/gcc/arm-none-eabi/7.3.1/thumb/v7e-m/fpv4-sp/hard\libgcc.a(_arm_unorddf2.o)
_atoi_r                                           c:/users/erth0001/user/gnuarmeclipse_photon/eclipse/gnu mcu eclipse/arm embedded gcc/bin/../lib/gcc/arm-none-eabi/7.3.1/../../../../arm-none-eabi/lib/thumb/v7e-m/fpv4-sp/hard\libg_nano.a(lib_a-atoi.o)
_calloc_r                                         c:/users/erth0001/user/gnuarmeclipse_photon/eclipse/gnu mcu eclipse/arm embedded gcc/bin/../lib/gcc/arm-none-eabi/7.3.1/../../../../arm-none-eabi/lib/thumb/v7e-m/fpv4-sp/hard\libg_nano.a(lib_a-nano-callocr.o)
                                                  c:/users/erth0001/user/gnuarmeclipse_photon/eclipse/gnu mcu eclipse/arm embedded gcc/bin/../lib/gcc/arm-none-eabi/7.3.1/../../../../arm-none-eabi/lib/thumb/v7e-m/fpv4-sp/hard\libg_nano.a(lib_a-mprec.o)
_cleanup                                          c:/users/erth0001/user/gnuarmeclipse_photon/eclipse/gnu mcu eclipse/arm embedded gcc/bin/../lib/gcc/arm-none-eabi/7.3.1/../../../../arm-none-eabi/lib/thumb/v7e-m/fpv4-sp/hard\libg_nano.a(lib_a-findfp.o)
_cleanup_r                                        c:/users/erth0001/user/gnuarmeclipse_photon/eclipse/gnu mcu eclipse/arm embedded gcc/bin/../lib/gcc/arm-none-eabi/7.3.1/../../../../arm-none-eabi/lib/thumb/v7e-m/fpv4-sp/hard\libg_nano.a(lib_a-findfp.o)
                                                  c:/users/erth0001/user/gnuarmeclipse_photon/eclipse/gnu mcu eclipse/arm embedded gcc/bin/../lib/gcc/arm-none-eabi/7.3.1/../../../../arm-none-eabi/lib/thumb/v7e-m/fpv4-sp/hard\libg_nano.a(lib_a-makebuf.o)
_clock                                            c:/users/erth0001/user/gnuarmeclipse_photon/eclipse/gnu mcu eclipse/arm embedded gcc/bin/../lib/gcc/arm-none-eabi/7.3.1/../../../../arm-none-eabi/lib/thumb/v7e-m/fpv4-sp/hard\librdimon_nano.a(rdimon-syscalls.o)
_close                                            c:/users/erth0001/user/gnuarmeclipse_photon/eclipse/gnu mcu eclipse/arm embedded gcc/bin/../lib/gcc/arm-none-eabi/7.3.1/../../../../arm-none-eabi/lib/thumb/v7e-m/fpv4-sp/hard\librdimon_nano.a(rdimon-syscalls.o)
                                                  c:/users/erth0001/user/gnuarmeclipse_photon/eclipse/gnu mcu eclipse/arm embedded gcc/bin/../lib/gcc/arm-none-eabi/7.3.1/../../../../arm-none-eabi/lib/thumb/v7e-m/fpv4-sp/hard\libg_nano.a(lib_a-closer.o)
_close_r                                          c:/users/erth0001/user/gnuarmeclipse_photon/eclipse/gnu mcu eclipse/arm embedded gcc/bin/../lib/gcc/arm-none-eabi/7.3.1/../../../../arm-none-eabi/lib/thumb/v7e-m/fpv4-sp/hard\libg_nano.a(lib_a-closer.o)
                                                  c:/users/erth0001/user/gnuarmeclipse_photon/eclipse/gnu mcu eclipse/arm embedded gcc/bin/../lib/gcc/arm-none-eabi/7.3.1/../../../../arm-none-eabi/lib/thumb/v7e-m/fpv4-sp/hard\libg_nano.a(lib_a-stdio.o)
_ctype_                                           c:/users/erth0001/user/gnuarmeclipse_photon/eclipse/gnu mcu eclipse/arm embedded gcc/bin/../lib/gcc/arm-none-eabi/7.3.1/../../../../arm-none-eabi/lib/thumb/v7e-m/fpv4-sp/hard\libg_nano.a(lib_a-ctype_.o)
                                                  c:/users/erth0001/user/gnuarmeclipse_photon/eclipse/gnu mcu eclipse/arm embedded gcc/bin/../lib/gcc/arm-none-eabi/7.3.1/../../../../arm-none-eabi/lib/thumb/v7e-m/fpv4-sp/hard\libg_nano.a(lib_a-locale.o)
_dtoa_r                                           c:/users/erth0001/user/gnuarmeclipse_photon/eclipse/gnu mcu eclipse/arm embedded gcc/bin/../lib/gcc/arm-none-eabi/7.3.1/../../../../arm-none-eabi/lib/thumb/v7e-m/fpv4-sp/hard\libg_nano.a(lib_a-dtoa.o)
                                                  c:/users/erth0001/user/gnuarmeclipse_photon/eclipse/gnu mcu eclipse/arm embedded gcc/bin/../lib/gcc/arm-none-eabi/7.3.1/../../../../arm-none-eabi/lib/thumb/v7e-m/fpv4-sp/hard\libg_nano.a(lib_a-nano-vfprintf_float.o)
_etext                                            ./system/include/S6E2CCA/startup/startup_s6e2cc.o
_fflush_r                                         c:/users/erth0001/user/gnuarmeclipse_photon/eclipse/gnu mcu eclipse/arm embedded gcc/bin/../lib/gcc/arm-none-eabi/7.3.1/../../../../arm-none-eabi/lib/thumb/v7e-m/fpv4-sp/hard\libg_nano.a(lib_a-fflush.o)
                                                  c:/users/erth0001/user/gnuarmeclipse_photon/eclipse/gnu mcu eclipse/arm embedded gcc/bin/../lib/gcc/arm-none-eabi/7.3.1/../../../../arm-none-eabi/lib/thumb/v7e-m/fpv4-sp/hard\libg_nano.a(lib_a-fvwrite.o)
                                                  c:/users/erth0001/user/gnuarmeclipse_photon/eclipse/gnu mcu eclipse/arm embedded gcc/bin/../lib/gcc/arm-none-eabi/7.3.1/../../../../arm-none-eabi/lib/thumb/v7e-m/fpv4-sp/hard\libg_nano.a(lib_a-wbuf.o)
                                                  c:/users/erth0001/user/gnuarmeclipse_photon/eclipse/gnu mcu eclipse/arm embedded gcc/bin/../lib/gcc/arm-none-eabi/7.3.1/../../../../arm-none-eabi/lib/thumb/v7e-m/fpv4-sp/hard\libg_nano.a(lib_a-findfp.o)
_free_r                                           c:/users/erth0001/user/gnuarmeclipse_photon/eclipse/gnu mcu eclipse/arm embedded gcc/bin/../lib/gcc/arm-none-eabi/7.3.1/../../../../arm-none-eabi/lib/thumb/v7e-m/fpv4-sp/hard\libg_nano.a(lib_a-nano-freer.o)
                                                  c:/users/erth0001/user/gnuarmeclipse_photon/eclipse/gnu mcu eclipse/arm embedded gcc/bin/../lib/gcc/arm-none-eabi/7.3.1/../../../../arm-none-eabi/lib/thumb/v7e-m/fpv4-sp/hard\libg_nano.a(lib_a-reent.o)
                                                  c:/users/erth0001/user/gnuarmeclipse_photon/eclipse/gnu mcu eclipse/arm embedded gcc/bin/../lib/gcc/arm-none-eabi/7.3.1/../../../../arm-none-eabi/lib/thumb/v7e-m/fpv4-sp/hard\libg_nano.a(lib_a-nano-reallocr.o)
                                                  c:/users/erth0001/user/gnuarmeclipse_photon/eclipse/gnu mcu eclipse/arm embedded gcc/bin/../lib/gcc/arm-none-eabi/7.3.1/../../../../arm-none-eabi/lib/thumb/v7e-m/fpv4-sp/hard\libg_nano.a(lib_a-fvwrite.o)
                                                  c:/users/erth0001/user/gnuarmeclipse_photon/eclipse/gnu mcu eclipse/arm embedded gcc/bin/../lib/gcc/arm-none-eabi/7.3.1/../../../../arm-none-eabi/lib/thumb/v7e-m/fpv4-sp/hard\libg_nano.a(lib_a-fflush.o)
                                                  c:/users/erth0001/user/gnuarmeclipse_photon/eclipse/gnu mcu eclipse/arm embedded gcc/bin/../lib/gcc/arm-none-eabi/7.3.1/../../../../arm-none-eabi/lib/thumb/v7e-m/fpv4-sp/hard\libg_nano.a(lib_a-wsetup.o)
                                                  c:/users/erth0001/user/gnuarmeclipse_photon/eclipse/gnu mcu eclipse/arm embedded gcc/bin/../lib/gcc/arm-none-eabi/7.3.1/../../../../arm-none-eabi/lib/thumb/v7e-m/fpv4-sp/hard\libg_nano.a(lib_a-nano-svfprintf.o)
                                                  c:/users/erth0001/user/gnuarmeclipse_photon/eclipse/gnu mcu eclipse/arm embedded gcc/bin/../lib/gcc/arm-none-eabi/7.3.1/../../../../arm-none-eabi/lib/thumb/v7e-m/fpv4-sp/hard\libg_nano.a(lib_a-malloc.o)
_fstat                                            c:/users/erth0001/user/gnuarmeclipse_photon/eclipse/gnu mcu eclipse/arm embedded gcc/bin/../lib/gcc/arm-none-eabi/7.3.1/../../../../arm-none-eabi/lib/thumb/v7e-m/fpv4-sp/hard\librdimon_nano.a(rdimon-syscalls.o)
                                                  c:/users/erth0001/user/gnuarmeclipse_photon/eclipse/gnu mcu eclipse/arm embedded gcc/bin/../lib/gcc/arm-none-eabi/7.3.1/../../../../arm-none-eabi/lib/thumb/v7e-m/fpv4-sp/hard\libg_nano.a(lib_a-fstatr.o)
_fstat_r                                          c:/users/erth0001/user/gnuarmeclipse_photon/eclipse/gnu mcu eclipse/arm embedded gcc/bin/../lib/gcc/arm-none-eabi/7.3.1/../../../../arm-none-eabi/lib/thumb/v7e-m/fpv4-sp/hard\libg_nano.a(lib_a-fstatr.o)
                                                  c:/users/erth0001/user/gnuarmeclipse_photon/eclipse/gnu mcu eclipse/arm embedded gcc/bin/../lib/gcc/arm-none-eabi/7.3.1/../../../../arm-none-eabi/lib/thumb/v7e-m/fpv4-sp/hard\libg_nano.a(lib_a-makebuf.o)
_fwalk                                            c:/users/erth0001/user/gnuarmeclipse_photon/eclipse/gnu mcu eclipse/arm embedded gcc/bin/../lib/gcc/arm-none-eabi/7.3.1/../../../../arm-none-eabi/lib/thumb/v7e-m/fpv4-sp/hard\libg_nano.a(lib_a-fwalk.o)
                                                  c:/users/erth0001/user/gnuarmeclipse_photon/eclipse/gnu mcu eclipse/arm embedded gcc/bin/../lib/gcc/arm-none-eabi/7.3.1/../../../../arm-none-eabi/lib/thumb/v7e-m/fpv4-sp/hard\libg_nano.a(lib_a-findfp.o)
_fwalk_reent                                      c:/users/erth0001/user/gnuarmeclipse_photon/eclipse/gnu mcu eclipse/arm embedded gcc/bin/../lib/gcc/arm-none-eabi/7.3.1/../../../../arm-none-eabi/lib/thumb/v7e-m/fpv4-sp/hard\libg_nano.a(lib_a-fwalk.o)
                                                  c:/users/erth0001/user/gnuarmeclipse_photon/eclipse/gnu mcu eclipse/arm embedded gcc/bin/../lib/gcc/arm-none-eabi/7.3.1/../../../../arm-none-eabi/lib/thumb/v7e-m/fpv4-sp/hard\libg_nano.a(lib_a-fflush.o)
                                                  c:/users/erth0001/user/gnuarmeclipse_photon/eclipse/gnu mcu eclipse/arm embedded gcc/bin/../lib/gcc/arm-none-eabi/7.3.1/../../../../arm-none-eabi/lib/thumb/v7e-m/fpv4-sp/hard\libg_nano.a(lib_a-findfp.o)
_get_semihosting_exts                             c:/users/erth0001/user/gnuarmeclipse_photon/eclipse/gnu mcu eclipse/arm embedded gcc/bin/../lib/gcc/arm-none-eabi/7.3.1/../../../../arm-none-eabi/lib/thumb/v7e-m/fpv4-sp/hard\librdimon_nano.a(rdimon-syscalls.o)
_getpid                                           c:/users/erth0001/user/gnuarmeclipse_photon/eclipse/gnu mcu eclipse/arm embedded gcc/bin/../lib/gcc/arm-none-eabi/7.3.1/../../../../arm-none-eabi/lib/thumb/v7e-m/fpv4-sp/hard\librdimon_nano.a(rdimon-syscalls.o)
_gettimeofday                                     c:/users/erth0001/user/gnuarmeclipse_photon/eclipse/gnu mcu eclipse/arm embedded gcc/bin/../lib/gcc/arm-none-eabi/7.3.1/../../../../arm-none-eabi/lib/thumb/v7e-m/fpv4-sp/hard\librdimon_nano.a(rdimon-syscalls.o)
_global_impure_ptr                                c:/users/erth0001/user/gnuarmeclipse_photon/eclipse/gnu mcu eclipse/arm embedded gcc/bin/../lib/gcc/arm-none-eabi/7.3.1/../../../../arm-none-eabi/lib/thumb/v7e-m/fpv4-sp/hard\libg_nano.a(lib_a-impure.o)
                                                  c:/users/erth0001/user/gnuarmeclipse_photon/eclipse/gnu mcu eclipse/arm embedded gcc/bin/../lib/gcc/arm-none-eabi/7.3.1/../../../../arm-none-eabi/lib/thumb/v7e-m/fpv4-sp/hard\libg_nano.a(lib_a-fflush.o)
                                                  c:/users/erth0001/user/gnuarmeclipse_photon/eclipse/gnu mcu eclipse/arm embedded gcc/bin/../lib/gcc/arm-none-eabi/7.3.1/../../../../arm-none-eabi/lib/thumb/v7e-m/fpv4-sp/hard\libg_nano.a(lib_a-findfp.o)
_has_ext_exit_extended                            c:/users/erth0001/user/gnuarmeclipse_photon/eclipse/gnu mcu eclipse/arm embedded gcc/bin/../lib/gcc/arm-none-eabi/7.3.1/../../../../arm-none-eabi/lib/thumb/v7e-m/fpv4-sp/hard\librdimon_nano.a(rdimon-syscalls.o)
_has_ext_stdout_stderr                            c:/users/erth0001/user/gnuarmeclipse_photon/eclipse/gnu mcu eclipse/arm embedded gcc/bin/../lib/gcc/arm-none-eabi/7.3.1/../../../../arm-none-eabi/lib/thumb/v7e-m/fpv4-sp/hard\librdimon_nano.a(rdimon-syscalls.o)
_impure_ptr                                       c:/users/erth0001/user/gnuarmeclipse_photon/eclipse/gnu mcu eclipse/arm embedded gcc/bin/../lib/gcc/arm-none-eabi/7.3.1/../../../../arm-none-eabi/lib/thumb/v7e-m/fpv4-sp/hard\libg_nano.a(lib_a-impure.o)
                                                  c:/users/erth0001/user/gnuarmeclipse_photon/eclipse/gnu mcu eclipse/arm embedded gcc/bin/../lib/gcc/arm-none-eabi/7.3.1/../../../../arm-none-eabi/lib/thumb/v7e-m/fpv4-sp/hard\libc_nano.a(lib_a-errno.o)
                                                  c:/users/erth0001/user/gnuarmeclipse_photon/eclipse/gnu mcu eclipse/arm embedded gcc/bin/../lib/gcc/arm-none-eabi/7.3.1/../../../../arm-none-eabi/lib/thumb/v7e-m/fpv4-sp/hard\librdimon_nano.a(rdimon-syscalls.o)
                                                  c:/users/erth0001/user/gnuarmeclipse_photon/eclipse/gnu mcu eclipse/arm embedded gcc/bin/../lib/gcc/arm-none-eabi/7.3.1/../../../../arm-none-eabi/lib/thumb/v7e-m/fpv4-sp/hard\libg_nano.a(lib_a-reent.o)
                                                  c:/users/erth0001/user/gnuarmeclipse_photon/eclipse/gnu mcu eclipse/arm embedded gcc/bin/../lib/gcc/arm-none-eabi/7.3.1/../../../../arm-none-eabi/lib/thumb/v7e-m/fpv4-sp/hard\libg_nano.a(lib_a-fflush.o)
                                                  c:/users/erth0001/user/gnuarmeclipse_photon/eclipse/gnu mcu eclipse/arm embedded gcc/bin/../lib/gcc/arm-none-eabi/7.3.1/../../../../arm-none-eabi/lib/thumb/v7e-m/fpv4-sp/hard\libg_nano.a(lib_a-wsetup.o)
                                                  c:/users/erth0001/user/gnuarmeclipse_photon/eclipse/gnu mcu eclipse/arm embedded gcc/bin/../lib/gcc/arm-none-eabi/7.3.1/../../../../arm-none-eabi/lib/thumb/v7e-m/fpv4-sp/hard\libg_nano.a(lib_a-wctomb_r.o)
                                                  c:/users/erth0001/user/gnuarmeclipse_photon/eclipse/gnu mcu eclipse/arm embedded gcc/bin/../lib/gcc/arm-none-eabi/7.3.1/../../../../arm-none-eabi/lib/thumb/v7e-m/fpv4-sp/hard\libg_nano.a(lib_a-wbuf.o)
                                                  c:/users/erth0001/user/gnuarmeclipse_photon/eclipse/gnu mcu eclipse/arm embedded gcc/bin/../lib/gcc/arm-none-eabi/7.3.1/../../../../arm-none-eabi/lib/thumb/v7e-m/fpv4-sp/hard\libg_nano.a(lib_a-nano-vfprintf.o)
                                                  c:/users/erth0001/user/gnuarmeclipse_photon/eclipse/gnu mcu eclipse/arm embedded gcc/bin/../lib/gcc/arm-none-eabi/7.3.1/../../../../arm-none-eabi/lib/thumb/v7e-m/fpv4-sp/hard\libg_nano.a(lib_a-mbtowc_r.o)
                                                  c:/users/erth0001/user/gnuarmeclipse_photon/eclipse/gnu mcu eclipse/arm embedded gcc/bin/../lib/gcc/arm-none-eabi/7.3.1/../../../../arm-none-eabi/lib/thumb/v7e-m/fpv4-sp/hard\libg_nano.a(lib_a-malloc.o)
                                                  c:/users/erth0001/user/gnuarmeclipse_photon/eclipse/gnu mcu eclipse/arm embedded gcc/bin/../lib/gcc/arm-none-eabi/7.3.1/../../../../arm-none-eabi/lib/thumb/v7e-m/fpv4-sp/hard\libg_nano.a(lib_a-localeconv.o)
                                                  c:/users/erth0001/user/gnuarmeclipse_photon/eclipse/gnu mcu eclipse/arm embedded gcc/bin/../lib/gcc/arm-none-eabi/7.3.1/../../../../arm-none-eabi/lib/thumb/v7e-m/fpv4-sp/hard\libg_nano.a(lib_a-locale.o)
                                                  c:/users/erth0001/user/gnuarmeclipse_photon/eclipse/gnu mcu eclipse/arm embedded gcc/bin/../lib/gcc/arm-none-eabi/7.3.1/../../../../arm-none-eabi/lib/thumb/v7e-m/fpv4-sp/hard\libg_nano.a(lib_a-findfp.o)
                                                  c:/users/erth0001/user/gnuarmeclipse_photon/eclipse/gnu mcu eclipse/arm embedded gcc/bin/../lib/gcc/arm-none-eabi/7.3.1/../../../../arm-none-eabi/lib/thumb/v7e-m/fpv4-sp/hard\libg_nano.a(lib_a-strtol.o)
                                                  c:/users/erth0001/user/gnuarmeclipse_photon/eclipse/gnu mcu eclipse/arm embedded gcc/bin/../lib/gcc/arm-none-eabi/7.3.1/../../../../arm-none-eabi/lib/thumb/v7e-m/fpv4-sp/hard\libg_nano.a(lib_a-strtod.o)
                                                  c:/users/erth0001/user/gnuarmeclipse_photon/eclipse/gnu mcu eclipse/arm embedded gcc/bin/../lib/gcc/arm-none-eabi/7.3.1/../../../../arm-none-eabi/lib/thumb/v7e-m/fpv4-sp/hard\libg_nano.a(lib_a-sprintf.o)
                                                  c:/users/erth0001/user/gnuarmeclipse_photon/eclipse/gnu mcu eclipse/arm embedded gcc/bin/../lib/gcc/arm-none-eabi/7.3.1/../../../../arm-none-eabi/lib/thumb/v7e-m/fpv4-sp/hard\libg_nano.a(lib_a-printf.o)
_iprintf_r                                        c:/users/erth0001/user/gnuarmeclipse_photon/eclipse/gnu mcu eclipse/arm embedded gcc/bin/../lib/gcc/arm-none-eabi/7.3.1/../../../../arm-none-eabi/lib/thumb/v7e-m/fpv4-sp/hard\libg_nano.a(lib_a-printf.o)
_isatty                                           c:/users/erth0001/user/gnuarmeclipse_photon/eclipse/gnu mcu eclipse/arm embedded gcc/bin/../lib/gcc/arm-none-eabi/7.3.1/../../../../arm-none-eabi/lib/thumb/v7e-m/fpv4-sp/hard\librdimon_nano.a(rdimon-syscalls.o)
                                                  c:/users/erth0001/user/gnuarmeclipse_photon/eclipse/gnu mcu eclipse/arm embedded gcc/bin/../lib/gcc/arm-none-eabi/7.3.1/../../../../arm-none-eabi/lib/thumb/v7e-m/fpv4-sp/hard\libg_nano.a(lib_a-isattyr.o)
_isatty_r                                         c:/users/erth0001/user/gnuarmeclipse_photon/eclipse/gnu mcu eclipse/arm embedded gcc/bin/../lib/gcc/arm-none-eabi/7.3.1/../../../../arm-none-eabi/lib/thumb/v7e-m/fpv4-sp/hard\libg_nano.a(lib_a-isattyr.o)
                                                  c:/users/erth0001/user/gnuarmeclipse_photon/eclipse/gnu mcu eclipse/arm embedded gcc/bin/../lib/gcc/arm-none-eabi/7.3.1/../../../../arm-none-eabi/lib/thumb/v7e-m/fpv4-sp/hard\libg_nano.a(lib_a-makebuf.o)
_link                                             c:/users/erth0001/user/gnuarmeclipse_photon/eclipse/gnu mcu eclipse/arm embedded gcc/bin/../lib/gcc/arm-none-eabi/7.3.1/../../../../arm-none-eabi/lib/thumb/v7e-m/fpv4-sp/hard\librdimon_nano.a(rdimon-syscalls.o)
_localeconv_r                                     c:/users/erth0001/user/gnuarmeclipse_photon/eclipse/gnu mcu eclipse/arm embedded gcc/bin/../lib/gcc/arm-none-eabi/7.3.1/../../../../arm-none-eabi/lib/thumb/v7e-m/fpv4-sp/hard\libg_nano.a(lib_a-localeconv.o)
                                                  c:/users/erth0001/user/gnuarmeclipse_photon/eclipse/gnu mcu eclipse/arm embedded gcc/bin/../lib/gcc/arm-none-eabi/7.3.1/../../../../arm-none-eabi/lib/thumb/v7e-m/fpv4-sp/hard\libg_nano.a(lib_a-nano-vfprintf_float.o)
_lseek                                            c:/users/erth0001/user/gnuarmeclipse_photon/eclipse/gnu mcu eclipse/arm embedded gcc/bin/../lib/gcc/arm-none-eabi/7.3.1/../../../../arm-none-eabi/lib/thumb/v7e-m/fpv4-sp/hard\librdimon_nano.a(rdimon-syscalls.o)
                                                  c:/users/erth0001/user/gnuarmeclipse_photon/eclipse/gnu mcu eclipse/arm embedded gcc/bin/../lib/gcc/arm-none-eabi/7.3.1/../../../../arm-none-eabi/lib/thumb/v7e-m/fpv4-sp/hard\libg_nano.a(lib_a-lseekr.o)
_lseek_r                                          c:/users/erth0001/user/gnuarmeclipse_photon/eclipse/gnu mcu eclipse/arm embedded gcc/bin/../lib/gcc/arm-none-eabi/7.3.1/../../../../arm-none-eabi/lib/thumb/v7e-m/fpv4-sp/hard\libg_nano.a(lib_a-lseekr.o)
                                                  c:/users/erth0001/user/gnuarmeclipse_photon/eclipse/gnu mcu eclipse/arm embedded gcc/bin/../lib/gcc/arm-none-eabi/7.3.1/../../../../arm-none-eabi/lib/thumb/v7e-m/fpv4-sp/hard\libg_nano.a(lib_a-stdio.o)
_malloc_r                                         c:/users/erth0001/user/gnuarmeclipse_photon/eclipse/gnu mcu eclipse/arm embedded gcc/bin/../lib/gcc/arm-none-eabi/7.3.1/../../../../arm-none-eabi/lib/thumb/v7e-m/fpv4-sp/hard\libg_nano.a(lib_a-nano-mallocr.o)
                                                  c:/users/erth0001/user/gnuarmeclipse_photon/eclipse/gnu mcu eclipse/arm embedded gcc/bin/../lib/gcc/arm-none-eabi/7.3.1/../../../../arm-none-eabi/lib/thumb/v7e-m/fpv4-sp/hard\libg_nano.a(lib_a-nano-reallocr.o)
                                                  c:/users/erth0001/user/gnuarmeclipse_photon/eclipse/gnu mcu eclipse/arm embedded gcc/bin/../lib/gcc/arm-none-eabi/7.3.1/../../../../arm-none-eabi/lib/thumb/v7e-m/fpv4-sp/hard\libg_nano.a(lib_a-makebuf.o)
                                                  c:/users/erth0001/user/gnuarmeclipse_photon/eclipse/gnu mcu eclipse/arm embedded gcc/bin/../lib/gcc/arm-none-eabi/7.3.1/../../../../arm-none-eabi/lib/thumb/v7e-m/fpv4-sp/hard\libg_nano.a(lib_a-fvwrite.o)
                                                  c:/users/erth0001/user/gnuarmeclipse_photon/eclipse/gnu mcu eclipse/arm embedded gcc/bin/../lib/gcc/arm-none-eabi/7.3.1/../../../../arm-none-eabi/lib/thumb/v7e-m/fpv4-sp/hard\libg_nano.a(lib_a-nano-svfprintf.o)
                                                  c:/users/erth0001/user/gnuarmeclipse_photon/eclipse/gnu mcu eclipse/arm embedded gcc/bin/../lib/gcc/arm-none-eabi/7.3.1/../../../../arm-none-eabi/lib/thumb/v7e-m/fpv4-sp/hard\libg_nano.a(lib_a-nano-callocr.o)
                                                  c:/users/erth0001/user/gnuarmeclipse_photon/eclipse/gnu mcu eclipse/arm embedded gcc/bin/../lib/gcc/arm-none-eabi/7.3.1/../../../../arm-none-eabi/lib/thumb/v7e-m/fpv4-sp/hard\libg_nano.a(lib_a-malloc.o)
                                                  c:/users/erth0001/user/gnuarmeclipse_photon/eclipse/gnu mcu eclipse/arm embedded gcc/bin/../lib/gcc/arm-none-eabi/7.3.1/../../../../arm-none-eabi/lib/thumb/v7e-m/fpv4-sp/hard\libg_nano.a(lib_a-findfp.o)
_malloc_usable_size_r                             c:/users/erth0001/user/gnuarmeclipse_photon/eclipse/gnu mcu eclipse/arm embedded gcc/bin/../lib/gcc/arm-none-eabi/7.3.1/../../../../arm-none-eabi/lib/thumb/v7e-m/fpv4-sp/hard\libg_nano.a(lib_a-nano-msizer.o)
                                                  c:/users/erth0001/user/gnuarmeclipse_photon/eclipse/gnu mcu eclipse/arm embedded gcc/bin/../lib/gcc/arm-none-eabi/7.3.1/../../../../arm-none-eabi/lib/thumb/v7e-m/fpv4-sp/hard\libg_nano.a(lib_a-nano-reallocr.o)
_mbtowc_r                                         c:/users/erth0001/user/gnuarmeclipse_photon/eclipse/gnu mcu eclipse/arm embedded gcc/bin/../lib/gcc/arm-none-eabi/7.3.1/../../../../arm-none-eabi/lib/thumb/v7e-m/fpv4-sp/hard\libg_nano.a(lib_a-mbtowc_r.o)
_mprec_log10                                      c:/users/erth0001/user/gnuarmeclipse_photon/eclipse/gnu mcu eclipse/arm embedded gcc/bin/../lib/gcc/arm-none-eabi/7.3.1/../../../../arm-none-eabi/lib/thumb/v7e-m/fpv4-sp/hard\libg_nano.a(lib_a-mprec.o)
_open                                             c:/users/erth0001/user/gnuarmeclipse_photon/eclipse/gnu mcu eclipse/arm embedded gcc/bin/../lib/gcc/arm-none-eabi/7.3.1/../../../../arm-none-eabi/lib/thumb/v7e-m/fpv4-sp/hard\librdimon_nano.a(rdimon-syscalls.o)
_printf_common                                    c:/users/erth0001/user/gnuarmeclipse_photon/eclipse/gnu mcu eclipse/arm embedded gcc/bin/../lib/gcc/arm-none-eabi/7.3.1/../../../../arm-none-eabi/lib/thumb/v7e-m/fpv4-sp/hard\libg_nano.a(lib_a-nano-vfprintf_i.o)
                                                  c:/users/erth0001/user/gnuarmeclipse_photon/eclipse/gnu mcu eclipse/arm embedded gcc/bin/../lib/gcc/arm-none-eabi/7.3.1/../../../../arm-none-eabi/lib/thumb/v7e-m/fpv4-sp/hard\libg_nano.a(lib_a-nano-vfprintf_float.o)
_printf_float                                     c:/users/erth0001/user/gnuarmeclipse_photon/eclipse/gnu mcu eclipse/arm embedded gcc/bin/../lib/gcc/arm-none-eabi/7.3.1/../../../../arm-none-eabi/lib/thumb/v7e-m/fpv4-sp/hard\libg_nano.a(lib_a-nano-vfprintf_float.o)
                                                  c:/users/erth0001/user/gnuarmeclipse_photon/eclipse/gnu mcu eclipse/arm embedded gcc/bin/../lib/gcc/arm-none-eabi/7.3.1/../../../../arm-none-eabi/lib/thumb/v7e-m/fpv4-sp/hard\libg_nano.a(lib_a-nano-vfprintf.o)
                                                  c:/users/erth0001/user/gnuarmeclipse_photon/eclipse/gnu mcu eclipse/arm embedded gcc/bin/../lib/gcc/arm-none-eabi/7.3.1/../../../../arm-none-eabi/lib/thumb/v7e-m/fpv4-sp/hard\libg_nano.a(lib_a-nano-svfprintf.o)
_printf_i                                         c:/users/erth0001/user/gnuarmeclipse_photon/eclipse/gnu mcu eclipse/arm embedded gcc/bin/../lib/gcc/arm-none-eabi/7.3.1/../../../../arm-none-eabi/lib/thumb/v7e-m/fpv4-sp/hard\libg_nano.a(lib_a-nano-vfprintf_i.o)
                                                  c:/users/erth0001/user/gnuarmeclipse_photon/eclipse/gnu mcu eclipse/arm embedded gcc/bin/../lib/gcc/arm-none-eabi/7.3.1/../../../../arm-none-eabi/lib/thumb/v7e-m/fpv4-sp/hard\libg_nano.a(lib_a-nano-vfprintf.o)
                                                  c:/users/erth0001/user/gnuarmeclipse_photon/eclipse/gnu mcu eclipse/arm embedded gcc/bin/../lib/gcc/arm-none-eabi/7.3.1/../../../../arm-none-eabi/lib/thumb/v7e-m/fpv4-sp/hard\libg_nano.a(lib_a-nano-svfprintf.o)
_printf_r                                         c:/users/erth0001/user/gnuarmeclipse_photon/eclipse/gnu mcu eclipse/arm embedded gcc/bin/../lib/gcc/arm-none-eabi/7.3.1/../../../../arm-none-eabi/lib/thumb/v7e-m/fpv4-sp/hard\libg_nano.a(lib_a-printf.o)
_read                                             c:/users/erth0001/user/gnuarmeclipse_photon/eclipse/gnu mcu eclipse/arm embedded gcc/bin/../lib/gcc/arm-none-eabi/7.3.1/../../../../arm-none-eabi/lib/thumb/v7e-m/fpv4-sp/hard\librdimon_nano.a(rdimon-syscalls.o)
                                                  c:/users/erth0001/user/gnuarmeclipse_photon/eclipse/gnu mcu eclipse/arm embedded gcc/bin/../lib/gcc/arm-none-eabi/7.3.1/../../../../arm-none-eabi/lib/thumb/v7e-m/fpv4-sp/hard\libg_nano.a(lib_a-readr.o)
_read_r                                           c:/users/erth0001/user/gnuarmeclipse_photon/eclipse/gnu mcu eclipse/arm embedded gcc/bin/../lib/gcc/arm-none-eabi/7.3.1/../../../../arm-none-eabi/lib/thumb/v7e-m/fpv4-sp/hard\libg_nano.a(lib_a-readr.o)
                                                  c:/users/erth0001/user/gnuarmeclipse_photon/eclipse/gnu mcu eclipse/arm embedded gcc/bin/../lib/gcc/arm-none-eabi/7.3.1/../../../../arm-none-eabi/lib/thumb/v7e-m/fpv4-sp/hard\libg_nano.a(lib_a-stdio.o)
_realloc_r                                        c:/users/erth0001/user/gnuarmeclipse_photon/eclipse/gnu mcu eclipse/arm embedded gcc/bin/../lib/gcc/arm-none-eabi/7.3.1/../../../../arm-none-eabi/lib/thumb/v7e-m/fpv4-sp/hard\libg_nano.a(lib_a-nano-reallocr.o)
                                                  c:/users/erth0001/user/gnuarmeclipse_photon/eclipse/gnu mcu eclipse/arm embedded gcc/bin/../lib/gcc/arm-none-eabi/7.3.1/../../../../arm-none-eabi/lib/thumb/v7e-m/fpv4-sp/hard\libg_nano.a(lib_a-fvwrite.o)
                                                  c:/users/erth0001/user/gnuarmeclipse_photon/eclipse/gnu mcu eclipse/arm embedded gcc/bin/../lib/gcc/arm-none-eabi/7.3.1/../../../../arm-none-eabi/lib/thumb/v7e-m/fpv4-sp/hard\libg_nano.a(lib_a-nano-svfprintf.o)
_reclaim_reent                                    c:/users/erth0001/user/gnuarmeclipse_photon/eclipse/gnu mcu eclipse/arm embedded gcc/bin/../lib/gcc/arm-none-eabi/7.3.1/../../../../arm-none-eabi/lib/thumb/v7e-m/fpv4-sp/hard\libg_nano.a(lib_a-reent.o)
_rename                                           c:/users/erth0001/user/gnuarmeclipse_photon/eclipse/gnu mcu eclipse/arm embedded gcc/bin/../lib/gcc/arm-none-eabi/7.3.1/../../../../arm-none-eabi/lib/thumb/v7e-m/fpv4-sp/hard\librdimon_nano.a(rdimon-syscalls.o)
_sbrk                                             c:/users/erth0001/user/gnuarmeclipse_photon/eclipse/gnu mcu eclipse/arm embedded gcc/bin/../lib/gcc/arm-none-eabi/7.3.1/../../../../arm-none-eabi/lib/thumb/v7e-m/fpv4-sp/hard\librdimon_nano.a(rdimon-syscalls.o)
                                                  c:/users/erth0001/user/gnuarmeclipse_photon/eclipse/gnu mcu eclipse/arm embedded gcc/bin/../lib/gcc/arm-none-eabi/7.3.1/../../../../arm-none-eabi/lib/thumb/v7e-m/fpv4-sp/hard\libg_nano.a(lib_a-sbrkr.o)
_sbrk_r                                           c:/users/erth0001/user/gnuarmeclipse_photon/eclipse/gnu mcu eclipse/arm embedded gcc/bin/../lib/gcc/arm-none-eabi/7.3.1/../../../../arm-none-eabi/lib/thumb/v7e-m/fpv4-sp/hard\libg_nano.a(lib_a-sbrkr.o)
                                                  c:/users/erth0001/user/gnuarmeclipse_photon/eclipse/gnu mcu eclipse/arm embedded gcc/bin/../lib/gcc/arm-none-eabi/7.3.1/../../../../arm-none-eabi/lib/thumb/v7e-m/fpv4-sp/hard\libg_nano.a(lib_a-nano-mallocr.o)
_sbss                                             ./system/include/S6E2CCA/startup/startup_s6e2cc.o
_scanf_float                                      c:/users/erth0001/user/gnuarmeclipse_photon/eclipse/gnu mcu eclipse/arm embedded gcc/bin/../lib/gcc/arm-none-eabi/7.3.1/../../../../arm-none-eabi/lib/thumb/v7e-m/fpv4-sp/hard\libg_nano.a(lib_a-nano-vfscanf_float.o)
_sdata                                            ./system/include/S6E2CCA/startup/startup_s6e2cc.o
_setlocale_r                                      c:/users/erth0001/user/gnuarmeclipse_photon/eclipse/gnu mcu eclipse/arm embedded gcc/bin/../lib/gcc/arm-none-eabi/7.3.1/../../../../arm-none-eabi/lib/thumb/v7e-m/fpv4-sp/hard\libg_nano.a(lib_a-locale.o)
_siprintf_r                                       c:/users/erth0001/user/gnuarmeclipse_photon/eclipse/gnu mcu eclipse/arm embedded gcc/bin/../lib/gcc/arm-none-eabi/7.3.1/../../../../arm-none-eabi/lib/thumb/v7e-m/fpv4-sp/hard\libg_nano.a(lib_a-sprintf.o)
_sprintf_r                                        c:/users/erth0001/user/gnuarmeclipse_photon/eclipse/gnu mcu eclipse/arm embedded gcc/bin/../lib/gcc/arm-none-eabi/7.3.1/../../../../arm-none-eabi/lib/thumb/v7e-m/fpv4-sp/hard\libg_nano.a(lib_a-sprintf.o)
_stat                                             c:/users/erth0001/user/gnuarmeclipse_photon/eclipse/gnu mcu eclipse/arm embedded gcc/bin/../lib/gcc/arm-none-eabi/7.3.1/../../../../arm-none-eabi/lib/thumb/v7e-m/fpv4-sp/hard\librdimon_nano.a(rdimon-syscalls.o)
_strtod_l                                         c:/users/erth0001/user/gnuarmeclipse_photon/eclipse/gnu mcu eclipse/arm embedded gcc/bin/../lib/gcc/arm-none-eabi/7.3.1/../../../../arm-none-eabi/lib/thumb/v7e-m/fpv4-sp/hard\libg_nano.a(lib_a-strtod.o)
_strtod_r                                         c:/users/erth0001/user/gnuarmeclipse_photon/eclipse/gnu mcu eclipse/arm embedded gcc/bin/../lib/gcc/arm-none-eabi/7.3.1/../../../../arm-none-eabi/lib/thumb/v7e-m/fpv4-sp/hard\libg_nano.a(lib_a-strtod.o)
                                                  c:/users/erth0001/user/gnuarmeclipse_photon/eclipse/gnu mcu eclipse/arm embedded gcc/bin/../lib/gcc/arm-none-eabi/7.3.1/../../../../arm-none-eabi/lib/thumb/v7e-m/fpv4-sp/hard\libg_nano.a(lib_a-nano-vfscanf_float.o)
_strtol_r                                         c:/users/erth0001/user/gnuarmeclipse_photon/eclipse/gnu mcu eclipse/arm embedded gcc/bin/../lib/gcc/arm-none-eabi/7.3.1/../../../../arm-none-eabi/lib/thumb/v7e-m/fpv4-sp/hard\libg_nano.a(lib_a-strtol.o)
                                                  c:/users/erth0001/user/gnuarmeclipse_photon/eclipse/gnu mcu eclipse/arm embedded gcc/bin/../lib/gcc/arm-none-eabi/7.3.1/../../../../arm-none-eabi/lib/thumb/v7e-m/fpv4-sp/hard\libg_nano.a(lib_a-nano-vfscanf_float.o)
                                                  c:/users/erth0001/user/gnuarmeclipse_photon/eclipse/gnu mcu eclipse/arm embedded gcc/bin/../lib/gcc/arm-none-eabi/7.3.1/../../../../arm-none-eabi/lib/thumb/v7e-m/fpv4-sp/hard\libg_nano.a(lib_a-atoi.o)
_svfiprintf_r                                     c:/users/erth0001/user/gnuarmeclipse_photon/eclipse/gnu mcu eclipse/arm embedded gcc/bin/../lib/gcc/arm-none-eabi/7.3.1/../../../../arm-none-eabi/lib/thumb/v7e-m/fpv4-sp/hard\libg_nano.a(lib_a-nano-svfprintf.o)
_svfprintf_r                                      c:/users/erth0001/user/gnuarmeclipse_photon/eclipse/gnu mcu eclipse/arm embedded gcc/bin/../lib/gcc/arm-none-eabi/7.3.1/../../../../arm-none-eabi/lib/thumb/v7e-m/fpv4-sp/hard\libg_nano.a(lib_a-nano-svfprintf.o)
                                                  c:/users/erth0001/user/gnuarmeclipse_photon/eclipse/gnu mcu eclipse/arm embedded gcc/bin/../lib/gcc/arm-none-eabi/7.3.1/../../../../arm-none-eabi/lib/thumb/v7e-m/fpv4-sp/hard\libg_nano.a(lib_a-sprintf.o)
_swiclose                                         c:/users/erth0001/user/gnuarmeclipse_photon/eclipse/gnu mcu eclipse/arm embedded gcc/bin/../lib/gcc/arm-none-eabi/7.3.1/../../../../arm-none-eabi/lib/thumb/v7e-m/fpv4-sp/hard\librdimon_nano.a(rdimon-syscalls.o)
_swilseek                                         c:/users/erth0001/user/gnuarmeclipse_photon/eclipse/gnu mcu eclipse/arm embedded gcc/bin/../lib/gcc/arm-none-eabi/7.3.1/../../../../arm-none-eabi/lib/thumb/v7e-m/fpv4-sp/hard\librdimon_nano.a(rdimon-syscalls.o)
_swiopen                                          c:/users/erth0001/user/gnuarmeclipse_photon/eclipse/gnu mcu eclipse/arm embedded gcc/bin/../lib/gcc/arm-none-eabi/7.3.1/../../../../arm-none-eabi/lib/thumb/v7e-m/fpv4-sp/hard\librdimon_nano.a(rdimon-syscalls.o)
_swiread                                          c:/users/erth0001/user/gnuarmeclipse_photon/eclipse/gnu mcu eclipse/arm embedded gcc/bin/../lib/gcc/arm-none-eabi/7.3.1/../../../../arm-none-eabi/lib/thumb/v7e-m/fpv4-sp/hard\librdimon_nano.a(rdimon-syscalls.o)
_swistat                                          c:/users/erth0001/user/gnuarmeclipse_photon/eclipse/gnu mcu eclipse/arm embedded gcc/bin/../lib/gcc/arm-none-eabi/7.3.1/../../../../arm-none-eabi/lib/thumb/v7e-m/fpv4-sp/hard\librdimon_nano.a(rdimon-syscalls.o)
_swiwrite                                         c:/users/erth0001/user/gnuarmeclipse_photon/eclipse/gnu mcu eclipse/arm embedded gcc/bin/../lib/gcc/arm-none-eabi/7.3.1/../../../../arm-none-eabi/lib/thumb/v7e-m/fpv4-sp/hard\librdimon_nano.a(rdimon-syscalls.o)
_system                                           c:/users/erth0001/user/gnuarmeclipse_photon/eclipse/gnu mcu eclipse/arm embedded gcc/bin/../lib/gcc/arm-none-eabi/7.3.1/../../../../arm-none-eabi/lib/thumb/v7e-m/fpv4-sp/hard\librdimon_nano.a(rdimon-syscalls.o)
_times                                            c:/users/erth0001/user/gnuarmeclipse_photon/eclipse/gnu mcu eclipse/arm embedded gcc/bin/../lib/gcc/arm-none-eabi/7.3.1/../../../../arm-none-eabi/lib/thumb/v7e-m/fpv4-sp/hard\librdimon_nano.a(rdimon-syscalls.o)
_unlink                                           c:/users/erth0001/user/gnuarmeclipse_photon/eclipse/gnu mcu eclipse/arm embedded gcc/bin/../lib/gcc/arm-none-eabi/7.3.1/../../../../arm-none-eabi/lib/thumb/v7e-m/fpv4-sp/hard\librdimon_nano.a(rdimon-syscalls.o)
_vfiprintf_r                                      c:/users/erth0001/user/gnuarmeclipse_photon/eclipse/gnu mcu eclipse/arm embedded gcc/bin/../lib/gcc/arm-none-eabi/7.3.1/../../../../arm-none-eabi/lib/thumb/v7e-m/fpv4-sp/hard\libg_nano.a(lib_a-nano-vfprintf.o)
_vfprintf_r                                       c:/users/erth0001/user/gnuarmeclipse_photon/eclipse/gnu mcu eclipse/arm embedded gcc/bin/../lib/gcc/arm-none-eabi/7.3.1/../../../../arm-none-eabi/lib/thumb/v7e-m/fpv4-sp/hard\libg_nano.a(lib_a-nano-vfprintf.o)
                                                  c:/users/erth0001/user/gnuarmeclipse_photon/eclipse/gnu mcu eclipse/arm embedded gcc/bin/../lib/gcc/arm-none-eabi/7.3.1/../../../../arm-none-eabi/lib/thumb/v7e-m/fpv4-sp/hard\libg_nano.a(lib_a-printf.o)
_wctomb_r                                         c:/users/erth0001/user/gnuarmeclipse_photon/eclipse/gnu mcu eclipse/arm embedded gcc/bin/../lib/gcc/arm-none-eabi/7.3.1/../../../../arm-none-eabi/lib/thumb/v7e-m/fpv4-sp/hard\libg_nano.a(lib_a-wctomb_r.o)
_write                                            c:/users/erth0001/user/gnuarmeclipse_photon/eclipse/gnu mcu eclipse/arm embedded gcc/bin/../lib/gcc/arm-none-eabi/7.3.1/../../../../arm-none-eabi/lib/thumb/v7e-m/fpv4-sp/hard\librdimon_nano.a(rdimon-syscalls.o)
                                                  c:/users/erth0001/user/gnuarmeclipse_photon/eclipse/gnu mcu eclipse/arm embedded gcc/bin/../lib/gcc/arm-none-eabi/7.3.1/../../../../arm-none-eabi/lib/thumb/v7e-m/fpv4-sp/hard\libg_nano.a(lib_a-writer.o)
_write_r                                          c:/users/erth0001/user/gnuarmeclipse_photon/eclipse/gnu mcu eclipse/arm embedded gcc/bin/../lib/gcc/arm-none-eabi/7.3.1/../../../../arm-none-eabi/lib/thumb/v7e-m/fpv4-sp/hard\libg_nano.a(lib_a-writer.o)
                                                  c:/users/erth0001/user/gnuarmeclipse_photon/eclipse/gnu mcu eclipse/arm embedded gcc/bin/../lib/gcc/arm-none-eabi/7.3.1/../../../../arm-none-eabi/lib/thumb/v7e-m/fpv4-sp/hard\libg_nano.a(lib_a-stdio.o)
atof                                              c:/users/erth0001/user/gnuarmeclipse_photon/eclipse/gnu mcu eclipse/arm embedded gcc/bin/../lib/gcc/arm-none-eabi/7.3.1/../../../../arm-none-eabi/lib/thumb/v7e-m/fpv4-sp/hard\libg_nano.a(lib_a-atof.o)
                                                  ./system/include/platform/FM4_slider_interface.o
atoi                                              c:/users/erth0001/user/gnuarmeclipse_photon/eclipse/gnu mcu eclipse/arm embedded gcc/bin/../lib/gcc/arm-none-eabi/7.3.1/../../../../arm-none-eabi/lib/thumb/v7e-m/fpv4-sp/hard\libg_nano.a(lib_a-atoi.o)
                                                  ./system/include/platform/FM4_slider_interface.o
bss_size                                          ./system/include/S6E2CCA/startup/startup_s6e2cc.o
cleanup_glue                                      c:/users/erth0001/user/gnuarmeclipse_photon/eclipse/gnu mcu eclipse/arm embedded gcc/bin/../lib/gcc/arm-none-eabi/7.3.1/../../../../arm-none-eabi/lib/thumb/v7e-m/fpv4-sp/hard\libg_nano.a(lib_a-reent.o)
data_size                                         ./system/include/S6E2CCA/startup/startup_s6e2cc.o
delay_cycles                                      ./system/include/platform/utils.o
delay_ms                                          ./system/include/platform/utils.o
delay_us                                          ./system/include/platform/utils.o
dma_rx_buffer_ping                                ./system/include/platform/platform.o
dma_rx_buffer_pong                                ./system/include/platform/platform.o
dma_tx_buffer_ping                                ./system/include/platform/platform.o
dma_tx_buffer_pong                                ./system/include/platform/platform.o
end                                               c:/users/erth0001/user/gnuarmeclipse_photon/eclipse/gnu mcu eclipse/arm embedded gcc/bin/../lib/gcc/arm-none-eabi/7.3.1/../../../../arm-none-eabi/lib/thumb/v7e-m/fpv4-sp/hard\librdimon_nano.a(rdimon-syscalls.o)
errno                                             c:/users/erth0001/user/gnuarmeclipse_photon/eclipse/gnu mcu eclipse/arm embedded gcc/bin/../lib/gcc/arm-none-eabi/7.3.1/../../../../arm-none-eabi/lib/thumb/v7e-m/fpv4-sp/hard\libg_nano.a(lib_a-reent.o)
                                                  c:/users/erth0001/user/gnuarmeclipse_photon/eclipse/gnu mcu eclipse/arm embedded gcc/bin/../lib/gcc/arm-none-eabi/7.3.1/../../../../arm-none-eabi/lib/thumb/v7e-m/fpv4-sp/hard\libg_nano.a(lib_a-isattyr.o)
                                                  c:/users/erth0001/user/gnuarmeclipse_photon/eclipse/gnu mcu eclipse/arm embedded gcc/bin/../lib/gcc/arm-none-eabi/7.3.1/../../../../arm-none-eabi/lib/thumb/v7e-m/fpv4-sp/hard\libg_nano.a(lib_a-fstatr.o)
                                                  c:/users/erth0001/user/gnuarmeclipse_photon/eclipse/gnu mcu eclipse/arm embedded gcc/bin/../lib/gcc/arm-none-eabi/7.3.1/../../../../arm-none-eabi/lib/thumb/v7e-m/fpv4-sp/hard\libg_nano.a(lib_a-readr.o)
                                                  c:/users/erth0001/user/gnuarmeclipse_photon/eclipse/gnu mcu eclipse/arm embedded gcc/bin/../lib/gcc/arm-none-eabi/7.3.1/../../../../arm-none-eabi/lib/thumb/v7e-m/fpv4-sp/hard\libg_nano.a(lib_a-lseekr.o)
                                                  c:/users/erth0001/user/gnuarmeclipse_photon/eclipse/gnu mcu eclipse/arm embedded gcc/bin/../lib/gcc/arm-none-eabi/7.3.1/../../../../arm-none-eabi/lib/thumb/v7e-m/fpv4-sp/hard\libg_nano.a(lib_a-closer.o)
                                                  c:/users/erth0001/user/gnuarmeclipse_photon/eclipse/gnu mcu eclipse/arm embedded gcc/bin/../lib/gcc/arm-none-eabi/7.3.1/../../../../arm-none-eabi/lib/thumb/v7e-m/fpv4-sp/hard\libg_nano.a(lib_a-writer.o)
                                                  c:/users/erth0001/user/gnuarmeclipse_photon/eclipse/gnu mcu eclipse/arm embedded gcc/bin/../lib/gcc/arm-none-eabi/7.3.1/../../../../arm-none-eabi/lib/thumb/v7e-m/fpv4-sp/hard\libg_nano.a(lib_a-sbrkr.o)
fflush                                            c:/users/erth0001/user/gnuarmeclipse_photon/eclipse/gnu mcu eclipse/arm embedded gcc/bin/../lib/gcc/arm-none-eabi/7.3.1/../../../../arm-none-eabi/lib/thumb/v7e-m/fpv4-sp/hard\libg_nano.a(lib_a-fflush.o)
free                                              c:/users/erth0001/user/gnuarmeclipse_photon/eclipse/gnu mcu eclipse/arm embedded gcc/bin/../lib/gcc/arm-none-eabi/7.3.1/../../../../arm-none-eabi/lib/thumb/v7e-m/fpv4-sp/hard\libg_nano.a(lib_a-malloc.o)
gpio_get                                          ./system/include/platform/utils.o
gpio_set                                          ./system/include/platform/utils.o
init_slider_interface                             ./system/include/platform/FM4_slider_interface.o
                                                  ./system/include/platform/platform.o
initialise_monitor_handles                        c:/users/erth0001/user/gnuarmeclipse_photon/eclipse/gnu mcu eclipse/arm embedded gcc/bin/../lib/gcc/arm-none-eabi/7.3.1/../../../../arm-none-eabi/lib/thumb/v7e-m/fpv4-sp/hard\librdimon_nano.a(rdimon-syscalls.o)
                                                  ./src/Examples/Semihosting.o
iprintf                                           c:/users/erth0001/user/gnuarmeclipse_photon/eclipse/gnu mcu eclipse/arm embedded gcc/bin/../lib/gcc/arm-none-eabi/7.3.1/../../../../arm-none-eabi/lib/thumb/v7e-m/fpv4-sp/hard\libg_nano.a(lib_a-printf.o)
localeconv                                        c:/users/erth0001/user/gnuarmeclipse_photon/eclipse/gnu mcu eclipse/arm embedded gcc/bin/../lib/gcc/arm-none-eabi/7.3.1/../../../../arm-none-eabi/lib/thumb/v7e-m/fpv4-sp/hard\libg_nano.a(lib_a-localeconv.o)
m_astcI2sInstanceDataLut                          ./system/include/S6E2CCA/PDL/i2s.o
                                                  ./system/include/S6E2CCA/PDL/interrupts_fm4_type_b.o
m_astcMfsInstanceDataLut                          ./system/include/S6E2CCA/PDL/mfs.o
main                                              ./src/Examples/Semihosting.o
                                                  ./system/include/S6E2CCA/startup/startup_s6e2cc.o
malloc                                            c:/users/erth0001/user/gnuarmeclipse_photon/eclipse/gnu mcu eclipse/arm embedded gcc/bin/../lib/gcc/arm-none-eabi/7.3.1/../../../../arm-none-eabi/lib/thumb/v7e-m/fpv4-sp/hard\libg_nano.a(lib_a-malloc.o)
                                                  c:/users/erth0001/user/gnuarmeclipse_photon/eclipse/gnu mcu eclipse/arm embedded gcc/bin/../lib/gcc/arm-none-eabi/7.3.1/../../../../arm-none-eabi/lib/thumb/v7e-m/fpv4-sp/hard\libg_nano.a(lib_a-mprec.o)
                                                  c:/users/erth0001/user/gnuarmeclipse_photon/eclipse/gnu mcu eclipse/arm embedded gcc/bin/../lib/gcc/arm-none-eabi/7.3.1/../../../../arm-none-eabi/lib/thumb/v7e-m/fpv4-sp/hard\libg_nano.a(lib_a-dtoa.o)
memchr                                            c:/users/erth0001/user/gnuarmeclipse_photon/eclipse/gnu mcu eclipse/arm embedded gcc/bin/../lib/gcc/arm-none-eabi/7.3.1/../../../../arm-none-eabi/lib/thumb/v7e-m/fpv4-sp/hard\libg_nano.a(lib_a-memchr.o)
                                                  c:/users/erth0001/user/gnuarmeclipse_photon/eclipse/gnu mcu eclipse/arm embedded gcc/bin/../lib/gcc/arm-none-eabi/7.3.1/../../../../arm-none-eabi/lib/thumb/v7e-m/fpv4-sp/hard\libg_nano.a(lib_a-fvwrite.o)
                                                  c:/users/erth0001/user/gnuarmeclipse_photon/eclipse/gnu mcu eclipse/arm embedded gcc/bin/../lib/gcc/arm-none-eabi/7.3.1/../../../../arm-none-eabi/lib/thumb/v7e-m/fpv4-sp/hard\libg_nano.a(lib_a-nano-vfprintf.o)
                                                  c:/users/erth0001/user/gnuarmeclipse_photon/eclipse/gnu mcu eclipse/arm embedded gcc/bin/../lib/gcc/arm-none-eabi/7.3.1/../../../../arm-none-eabi/lib/thumb/v7e-m/fpv4-sp/hard\libg_nano.a(lib_a-nano-svfprintf.o)
                                                  c:/users/erth0001/user/gnuarmeclipse_photon/eclipse/gnu mcu eclipse/arm embedded gcc/bin/../lib/gcc/arm-none-eabi/7.3.1/../../../../arm-none-eabi/lib/thumb/v7e-m/fpv4-sp/hard\libg_nano.a(lib_a-nano-vfprintf_i.o)
memcpy                                            c:/users/erth0001/user/gnuarmeclipse_photon/eclipse/gnu mcu eclipse/arm embedded gcc/bin/../lib/gcc/arm-none-eabi/7.3.1/../../../../arm-none-eabi/lib/thumb/v7e-m/fpv4-sp/hard\libg_nano.a(lib_a-memcpy-stub.o)
                                                  c:/users/erth0001/user/gnuarmeclipse_photon/eclipse/gnu mcu eclipse/arm embedded gcc/bin/../lib/gcc/arm-none-eabi/7.3.1/../../../../arm-none-eabi/lib/thumb/v7e-m/fpv4-sp/hard\libg_nano.a(lib_a-nano-reallocr.o)
                                                  c:/users/erth0001/user/gnuarmeclipse_photon/eclipse/gnu mcu eclipse/arm embedded gcc/bin/../lib/gcc/arm-none-eabi/7.3.1/../../../../arm-none-eabi/lib/thumb/v7e-m/fpv4-sp/hard\libg_nano.a(lib_a-fvwrite.o)
                                                  c:/users/erth0001/user/gnuarmeclipse_photon/eclipse/gnu mcu eclipse/arm embedded gcc/bin/../lib/gcc/arm-none-eabi/7.3.1/../../../../arm-none-eabi/lib/thumb/v7e-m/fpv4-sp/hard\libg_nano.a(lib_a-nano-svfprintf.o)
                                                  c:/users/erth0001/user/gnuarmeclipse_photon/eclipse/gnu mcu eclipse/arm embedded gcc/bin/../lib/gcc/arm-none-eabi/7.3.1/../../../../arm-none-eabi/lib/thumb/v7e-m/fpv4-sp/hard\libg_nano.a(lib_a-mprec.o)
                                                  c:/users/erth0001/user/gnuarmeclipse_photon/eclipse/gnu mcu eclipse/arm embedded gcc/bin/../lib/gcc/arm-none-eabi/7.3.1/../../../../arm-none-eabi/lib/thumb/v7e-m/fpv4-sp/hard\libg_nano.a(lib_a-gdtoa-gethex.o)
                                                  c:/users/erth0001/user/gnuarmeclipse_photon/eclipse/gnu mcu eclipse/arm embedded gcc/bin/../lib/gcc/arm-none-eabi/7.3.1/../../../../arm-none-eabi/lib/thumb/v7e-m/fpv4-sp/hard\libg_nano.a(lib_a-dtoa.o)
                                                  c:/users/erth0001/user/gnuarmeclipse_photon/eclipse/gnu mcu eclipse/arm embedded gcc/bin/../lib/gcc/arm-none-eabi/7.3.1/../../../../arm-none-eabi/lib/thumb/v7e-m/fpv4-sp/hard\libg_nano.a(lib_a-strtod.o)
memmove                                           c:/users/erth0001/user/gnuarmeclipse_photon/eclipse/gnu mcu eclipse/arm embedded gcc/bin/../lib/gcc/arm-none-eabi/7.3.1/../../../../arm-none-eabi/lib/thumb/v7e-m/fpv4-sp/hard\libg_nano.a(lib_a-memmove.o)
                                                  c:/users/erth0001/user/gnuarmeclipse_photon/eclipse/gnu mcu eclipse/arm embedded gcc/bin/../lib/gcc/arm-none-eabi/7.3.1/../../../../arm-none-eabi/lib/thumb/v7e-m/fpv4-sp/hard\libg_nano.a(lib_a-fvwrite.o)
                                                  c:/users/erth0001/user/gnuarmeclipse_photon/eclipse/gnu mcu eclipse/arm embedded gcc/bin/../lib/gcc/arm-none-eabi/7.3.1/../../../../arm-none-eabi/lib/thumb/v7e-m/fpv4-sp/hard\libg_nano.a(lib_a-nano-svfprintf.o)
memset                                            c:/users/erth0001/user/gnuarmeclipse_photon/eclipse/gnu mcu eclipse/arm embedded gcc/bin/../lib/gcc/arm-none-eabi/7.3.1/../../../../arm-none-eabi/lib/thumb/v7e-m/fpv4-sp/hard\libg_nano.a(lib_a-memset.o)
                                                  c:/users/erth0001/user/gnuarmeclipse_photon/eclipse/gnu mcu eclipse/arm embedded gcc/bin/../lib/gcc/arm-none-eabi/7.3.1/../../../../arm-none-eabi/lib/thumb/v7e-m/fpv4-sp/hard\librdimon_nano.a(rdimon-syscalls.o)
                                                  c:/users/erth0001/user/gnuarmeclipse_photon/eclipse/gnu mcu eclipse/arm embedded gcc/bin/../lib/gcc/arm-none-eabi/7.3.1/../../../../arm-none-eabi/lib/thumb/v7e-m/fpv4-sp/hard\libg_nano.a(lib_a-nano-callocr.o)
                                                  c:/users/erth0001/user/gnuarmeclipse_photon/eclipse/gnu mcu eclipse/arm embedded gcc/bin/../lib/gcc/arm-none-eabi/7.3.1/../../../../arm-none-eabi/lib/thumb/v7e-m/fpv4-sp/hard\libg_nano.a(lib_a-findfp.o)
                                                  ./system/include/platform/FM4_slider_interface.o
nanf                                              c:/users/erth0001/user/gnuarmeclipse_photon/eclipse/gnu mcu eclipse/arm embedded gcc/bin/../lib/gcc/arm-none-eabi/7.3.1/../../../../arm-none-eabi/lib/thumb/v7e-m/fpv4-sp/hard\libg_nano.a(lib_a-sf_nan.o)
                                                  c:/users/erth0001/user/gnuarmeclipse_photon/eclipse/gnu mcu eclipse/arm embedded gcc/bin/../lib/gcc/arm-none-eabi/7.3.1/../../../../arm-none-eabi/lib/thumb/v7e-m/fpv4-sp/hard\libg_nano.a(lib_a-strtod.o)
                                                  c:/users/erth0001/user/gnuarmeclipse_photon/eclipse/gnu mcu eclipse/arm embedded gcc/bin/../lib/gcc/arm-none-eabi/7.3.1/../../../../arm-none-eabi/lib/thumb/v7e-m/fpv4-sp/hard\libg_nano.a(lib_a-nano-vfscanf_float.o)
pdl_memclr                                        ./system/include/S6E2CCA/PDL/pdl.o
                                                  ./system/include/S6E2CCA/PDL/wm8731.o
                                                  ./system/include/S6E2CCA/PDL/mfs.o
                                                  ./system/include/platform/platform.o
platform_init                                     ./system/include/platform/platform.o
prbs                                              ./system/include/platform/utils.o
printf                                            c:/users/erth0001/user/gnuarmeclipse_photon/eclipse/gnu mcu eclipse/arm embedded gcc/bin/../lib/gcc/arm-none-eabi/7.3.1/../../../../arm-none-eabi/lib/thumb/v7e-m/fpv4-sp/hard\libg_nano.a(lib_a-printf.o)
                                                  ./src/Examples/Semihosting.o
pstcI2cInstance                                   ./system/include/S6E2CCA/PDL/wm8731.o
setLIandHPlevels                                  ./system/include/platform/FM4_slider_interface.o
setlocale                                         c:/users/erth0001/user/gnuarmeclipse_photon/eclipse/gnu mcu eclipse/arm embedded gcc/bin/../lib/gcc/arm-none-eabi/7.3.1/../../../../arm-none-eabi/lib/thumb/v7e-m/fpv4-sp/hard\libg_nano.a(lib_a-locale.o)
siprintf                                          c:/users/erth0001/user/gnuarmeclipse_photon/eclipse/gnu mcu eclipse/arm embedded gcc/bin/../lib/gcc/arm-none-eabi/7.3.1/../../../../arm-none-eabi/lib/thumb/v7e-m/fpv4-sp/hard\libg_nano.a(lib_a-sprintf.o)
sprintf                                           c:/users/erth0001/user/gnuarmeclipse_photon/eclipse/gnu mcu eclipse/arm embedded gcc/bin/../lib/gcc/arm-none-eabi/7.3.1/../../../../arm-none-eabi/lib/thumb/v7e-m/fpv4-sp/hard\libg_nano.a(lib_a-sprintf.o)
                                                  c:/users/erth0001/user/gnuarmeclipse_photon/eclipse/gnu mcu eclipse/arm embedded gcc/bin/../lib/gcc/arm-none-eabi/7.3.1/../../../../arm-none-eabi/lib/thumb/v7e-m/fpv4-sp/hard\libg_nano.a(lib_a-nano-vfscanf_float.o)
stcDES                                            ./system/include/platform/platform.o
strcmp                                            c:/users/erth0001/user/gnuarmeclipse_photon/eclipse/gnu mcu eclipse/arm embedded gcc/bin/../lib/gcc/arm-none-eabi/7.3.1/../../../../arm-none-eabi/lib/thumb/v7e-m/fpv4-sp/hard\libg_nano.a(lib_a-strcmp.o)
                                                  c:/users/erth0001/user/gnuarmeclipse_photon/eclipse/gnu mcu eclipse/arm embedded gcc/bin/../lib/gcc/arm-none-eabi/7.3.1/../../../../arm-none-eabi/lib/thumb/v7e-m/fpv4-sp/hard\libg_nano.a(lib_a-locale.o)
strlen                                            c:/users/erth0001/user/gnuarmeclipse_photon/eclipse/gnu mcu eclipse/arm embedded gcc/bin/../lib/gcc/arm-none-eabi/7.3.1/../../../../arm-none-eabi/lib/thumb/v7e-m/fpv4-sp/hard\libg_nano.a(lib_a-strlen.o)
                                                  c:/users/erth0001/user/gnuarmeclipse_photon/eclipse/gnu mcu eclipse/arm embedded gcc/bin/../lib/gcc/arm-none-eabi/7.3.1/../../../../arm-none-eabi/lib/thumb/v7e-m/fpv4-sp/hard\librdimon_nano.a(rdimon-syscalls.o)
                                                  c:/users/erth0001/user/gnuarmeclipse_photon/eclipse/gnu mcu eclipse/arm embedded gcc/bin/../lib/gcc/arm-none-eabi/7.3.1/../../../../arm-none-eabi/lib/thumb/v7e-m/fpv4-sp/hard\libg_nano.a(lib_a-gdtoa-gethex.o)
                                                  c:/users/erth0001/user/gnuarmeclipse_photon/eclipse/gnu mcu eclipse/arm embedded gcc/bin/../lib/gcc/arm-none-eabi/7.3.1/../../../../arm-none-eabi/lib/thumb/v7e-m/fpv4-sp/hard\libg_nano.a(lib_a-strtod.o)
                                                  c:/users/erth0001/user/gnuarmeclipse_photon/eclipse/gnu mcu eclipse/arm embedded gcc/bin/../lib/gcc/arm-none-eabi/7.3.1/../../../../arm-none-eabi/lib/thumb/v7e-m/fpv4-sp/hard\libg_nano.a(lib_a-nano-vfprintf_float.o)
strncmp                                           c:/users/erth0001/user/gnuarmeclipse_photon/eclipse/gnu mcu eclipse/arm embedded gcc/bin/../lib/gcc/arm-none-eabi/7.3.1/../../../../arm-none-eabi/lib/thumb/v7e-m/fpv4-sp/hard\libg_nano.a(lib_a-strncmp.o)
                                                  c:/users/erth0001/user/gnuarmeclipse_photon/eclipse/gnu mcu eclipse/arm embedded gcc/bin/../lib/gcc/arm-none-eabi/7.3.1/../../../../arm-none-eabi/lib/thumb/v7e-m/fpv4-sp/hard\libg_nano.a(lib_a-gdtoa-gethex.o)
                                                  c:/users/erth0001/user/gnuarmeclipse_photon/eclipse/gnu mcu eclipse/arm embedded gcc/bin/../lib/gcc/arm-none-eabi/7.3.1/../../../../arm-none-eabi/lib/thumb/v7e-m/fpv4-sp/hard\libg_nano.a(lib_a-strtod.o)
strtod                                            c:/users/erth0001/user/gnuarmeclipse_photon/eclipse/gnu mcu eclipse/arm embedded gcc/bin/../lib/gcc/arm-none-eabi/7.3.1/../../../../arm-none-eabi/lib/thumb/v7e-m/fpv4-sp/hard\libg_nano.a(lib_a-strtod.o)
                                                  c:/users/erth0001/user/gnuarmeclipse_photon/eclipse/gnu mcu eclipse/arm embedded gcc/bin/../lib/gcc/arm-none-eabi/7.3.1/../../../../arm-none-eabi/lib/thumb/v7e-m/fpv4-sp/hard\libg_nano.a(lib_a-atof.o)
strtod_l                                          c:/users/erth0001/user/gnuarmeclipse_photon/eclipse/gnu mcu eclipse/arm embedded gcc/bin/../lib/gcc/arm-none-eabi/7.3.1/../../../../arm-none-eabi/lib/thumb/v7e-m/fpv4-sp/hard\libg_nano.a(lib_a-strtod.o)
strtof                                            c:/users/erth0001/user/gnuarmeclipse_photon/eclipse/gnu mcu eclipse/arm embedded gcc/bin/../lib/gcc/arm-none-eabi/7.3.1/../../../../arm-none-eabi/lib/thumb/v7e-m/fpv4-sp/hard\libg_nano.a(lib_a-strtod.o)
strtof_l                                          c:/users/erth0001/user/gnuarmeclipse_photon/eclipse/gnu mcu eclipse/arm embedded gcc/bin/../lib/gcc/arm-none-eabi/7.3.1/../../../../arm-none-eabi/lib/thumb/v7e-m/fpv4-sp/hard\libg_nano.a(lib_a-strtod.o)
strtol                                            c:/users/erth0001/user/gnuarmeclipse_photon/eclipse/gnu mcu eclipse/arm embedded gcc/bin/../lib/gcc/arm-none-eabi/7.3.1/../../../../arm-none-eabi/lib/thumb/v7e-m/fpv4-sp/hard\libg_nano.a(lib_a-strtol.o)
                                                  c:/users/erth0001/user/gnuarmeclipse_photon/eclipse/gnu mcu eclipse/arm embedded gcc/bin/../lib/gcc/arm-none-eabi/7.3.1/../../../../arm-none-eabi/lib/thumb/v7e-m/fpv4-sp/hard\libg_nano.a(lib_a-atoi.o)
strtol_l                                          c:/users/erth0001/user/gnuarmeclipse_photon/eclipse/gnu mcu eclipse/arm embedded gcc/bin/../lib/gcc/arm-none-eabi/7.3.1/../../../../arm-none-eabi/lib/thumb/v7e-m/fpv4-sp/hard\libg_nano.a(lib_a-strtol.o)
u16LeftHpOut                                      ./system/include/S6E2CCA/PDL/wm8731.o
u16RightHpOut                                     ./system/include/S6E2CCA/PDL/wm8731.o
update_slider_parameters                          ./system/include/platform/FM4_slider_interface.o
vfiprintf                                         c:/users/erth0001/user/gnuarmeclipse_photon/eclipse/gnu mcu eclipse/arm embedded gcc/bin/../lib/gcc/arm-none-eabi/7.3.1/../../../../arm-none-eabi/lib/thumb/v7e-m/fpv4-sp/hard\libg_nano.a(lib_a-nano-vfprintf.o)
vfprintf                                          c:/users/erth0001/user/gnuarmeclipse_photon/eclipse/gnu mcu eclipse/arm embedded gcc/bin/../lib/gcc/arm-none-eabi/7.3.1/../../../../arm-none-eabi/lib/thumb/v7e-m/fpv4-sp/hard\libg_nano.a(lib_a-nano-vfprintf.o)
writeUart0                                        ./system/include/platform/utils.o
